ARM GAS  C:\Users\214016~1\AppData\Local\Temp\ccgR0nMh.s 			page 1


   1              		.syntax unified
   2              		.cpu cortex-m0
   3              		.fpu softvfp
   4              		.eabi_attribute 20, 1
   5              		.eabi_attribute 21, 1
   6              		.eabi_attribute 23, 3
   7              		.eabi_attribute 24, 1
   8              		.eabi_attribute 25, 1
   9              		.eabi_attribute 26, 1
  10              		.eabi_attribute 30, 1
  11              		.eabi_attribute 34, 0
  12              		.eabi_attribute 18, 4
  13              		.thumb
  14              		.syntax unified
  15              		.file	"cyfitter_cfg.c"
  16              		.text
  17              	.Ltext0:
  18              		.cfi_sections	.debug_frame
  19              		.section	.text.cfg_write_bytes32,"ax",%progbits
  20              		.align	2
  21              		.code	16
  22              		.thumb_func
  23              		.type	cfg_write_bytes32, %function
  24              	cfg_write_bytes32:
  25              	.LFB4:
  26              		.file 1 "Generated_Source\\PSoC4\\cyfitter_cfg.c"
   1:Generated_Source\PSoC4/cyfitter_cfg.c **** 
   2:Generated_Source\PSoC4/cyfitter_cfg.c **** /*******************************************************************************
   3:Generated_Source\PSoC4/cyfitter_cfg.c **** * File Name: cyfitter_cfg.c
   4:Generated_Source\PSoC4/cyfitter_cfg.c **** * 
   5:Generated_Source\PSoC4/cyfitter_cfg.c **** * PSoC Creator  4.1 Update 1
   6:Generated_Source\PSoC4/cyfitter_cfg.c **** *
   7:Generated_Source\PSoC4/cyfitter_cfg.c **** * Description:
   8:Generated_Source\PSoC4/cyfitter_cfg.c **** * This file contains device initialization code.
   9:Generated_Source\PSoC4/cyfitter_cfg.c **** * Except for the user defined sections in CyClockStartupError(), this file should not be modified.
  10:Generated_Source\PSoC4/cyfitter_cfg.c **** * This file is automatically generated by PSoC Creator.
  11:Generated_Source\PSoC4/cyfitter_cfg.c **** *
  12:Generated_Source\PSoC4/cyfitter_cfg.c **** ********************************************************************************
  13:Generated_Source\PSoC4/cyfitter_cfg.c **** * Copyright (c) 2007-2017 Cypress Semiconductor.  All rights reserved.
  14:Generated_Source\PSoC4/cyfitter_cfg.c **** * You may use this file only in accordance with the license, terms, conditions, 
  15:Generated_Source\PSoC4/cyfitter_cfg.c **** * disclaimers, and limitations in the end user license agreement accompanying 
  16:Generated_Source\PSoC4/cyfitter_cfg.c **** * the software package with which this file was provided.
  17:Generated_Source\PSoC4/cyfitter_cfg.c **** ********************************************************************************/
  18:Generated_Source\PSoC4/cyfitter_cfg.c **** 
  19:Generated_Source\PSoC4/cyfitter_cfg.c **** #include <string.h>
  20:Generated_Source\PSoC4/cyfitter_cfg.c **** #include "cytypes.h"
  21:Generated_Source\PSoC4/cyfitter_cfg.c **** #include "cydevice_trm.h"
  22:Generated_Source\PSoC4/cyfitter_cfg.c **** #include "cyfitter.h"
  23:Generated_Source\PSoC4/cyfitter_cfg.c **** #include "CyLib.h"
  24:Generated_Source\PSoC4/cyfitter_cfg.c **** #include "CyLFClk.h"
  25:Generated_Source\PSoC4/cyfitter_cfg.c **** #include "cyfitter_cfg.h"
  26:Generated_Source\PSoC4/cyfitter_cfg.c **** #include "cyapicallbacks.h"
  27:Generated_Source\PSoC4/cyfitter_cfg.c **** 
  28:Generated_Source\PSoC4/cyfitter_cfg.c **** 
  29:Generated_Source\PSoC4/cyfitter_cfg.c **** #if defined(__GNUC__) || defined(__ARMCC_VERSION)
  30:Generated_Source\PSoC4/cyfitter_cfg.c ****     #define CYPACKED 
  31:Generated_Source\PSoC4/cyfitter_cfg.c ****     #define CYPACKED_ATTR __attribute__ ((packed))
ARM GAS  C:\Users\214016~1\AppData\Local\Temp\ccgR0nMh.s 			page 2


  32:Generated_Source\PSoC4/cyfitter_cfg.c ****     #define CYALIGNED __attribute__ ((aligned))
  33:Generated_Source\PSoC4/cyfitter_cfg.c ****     #define CY_CFG_UNUSED __attribute__ ((unused))
  34:Generated_Source\PSoC4/cyfitter_cfg.c ****     #ifndef CY_CFG_SECTION
  35:Generated_Source\PSoC4/cyfitter_cfg.c ****         #define CY_CFG_SECTION __attribute__ ((section(".psocinit")))
  36:Generated_Source\PSoC4/cyfitter_cfg.c ****     #endif
  37:Generated_Source\PSoC4/cyfitter_cfg.c ****     
  38:Generated_Source\PSoC4/cyfitter_cfg.c ****     #if defined(__ARMCC_VERSION)
  39:Generated_Source\PSoC4/cyfitter_cfg.c ****         #define CY_CFG_MEMORY_BARRIER() __memory_changed()
  40:Generated_Source\PSoC4/cyfitter_cfg.c ****     #else
  41:Generated_Source\PSoC4/cyfitter_cfg.c ****         #define CY_CFG_MEMORY_BARRIER() __sync_synchronize()
  42:Generated_Source\PSoC4/cyfitter_cfg.c ****     #endif
  43:Generated_Source\PSoC4/cyfitter_cfg.c ****     
  44:Generated_Source\PSoC4/cyfitter_cfg.c **** #elif defined(__ICCARM__)
  45:Generated_Source\PSoC4/cyfitter_cfg.c ****     #include <intrinsics.h>
  46:Generated_Source\PSoC4/cyfitter_cfg.c **** 
  47:Generated_Source\PSoC4/cyfitter_cfg.c ****     #define CYPACKED __packed
  48:Generated_Source\PSoC4/cyfitter_cfg.c ****     #define CYPACKED_ATTR 
  49:Generated_Source\PSoC4/cyfitter_cfg.c ****     #define CYALIGNED _Pragma("data_alignment=4")
  50:Generated_Source\PSoC4/cyfitter_cfg.c ****     #define CY_CFG_UNUSED _Pragma("diag_suppress=Pe177")
  51:Generated_Source\PSoC4/cyfitter_cfg.c ****     #define CY_CFG_SECTION _Pragma("location=\".psocinit\"")
  52:Generated_Source\PSoC4/cyfitter_cfg.c ****     
  53:Generated_Source\PSoC4/cyfitter_cfg.c ****     #define CY_CFG_MEMORY_BARRIER() __DMB()
  54:Generated_Source\PSoC4/cyfitter_cfg.c ****     
  55:Generated_Source\PSoC4/cyfitter_cfg.c **** #else
  56:Generated_Source\PSoC4/cyfitter_cfg.c ****     #error Unsupported toolchain
  57:Generated_Source\PSoC4/cyfitter_cfg.c **** #endif
  58:Generated_Source\PSoC4/cyfitter_cfg.c **** 
  59:Generated_Source\PSoC4/cyfitter_cfg.c **** #ifndef CYCODE
  60:Generated_Source\PSoC4/cyfitter_cfg.c ****     #define CYCODE
  61:Generated_Source\PSoC4/cyfitter_cfg.c **** #endif
  62:Generated_Source\PSoC4/cyfitter_cfg.c **** #ifndef CYDATA
  63:Generated_Source\PSoC4/cyfitter_cfg.c ****     #define CYDATA
  64:Generated_Source\PSoC4/cyfitter_cfg.c **** #endif
  65:Generated_Source\PSoC4/cyfitter_cfg.c **** #ifndef CYFAR
  66:Generated_Source\PSoC4/cyfitter_cfg.c ****     #define CYFAR
  67:Generated_Source\PSoC4/cyfitter_cfg.c **** #endif
  68:Generated_Source\PSoC4/cyfitter_cfg.c **** #ifndef CYXDATA
  69:Generated_Source\PSoC4/cyfitter_cfg.c ****     #define CYXDATA
  70:Generated_Source\PSoC4/cyfitter_cfg.c **** #endif
  71:Generated_Source\PSoC4/cyfitter_cfg.c **** 
  72:Generated_Source\PSoC4/cyfitter_cfg.c **** 
  73:Generated_Source\PSoC4/cyfitter_cfg.c **** CY_CFG_UNUSED
  74:Generated_Source\PSoC4/cyfitter_cfg.c **** static void CYMEMZERO(void *s, size_t n);
  75:Generated_Source\PSoC4/cyfitter_cfg.c **** CY_CFG_UNUSED
  76:Generated_Source\PSoC4/cyfitter_cfg.c **** static void CYMEMZERO(void *s, size_t n)
  77:Generated_Source\PSoC4/cyfitter_cfg.c **** {
  78:Generated_Source\PSoC4/cyfitter_cfg.c **** 	(void)memset(s, 0, n);
  79:Generated_Source\PSoC4/cyfitter_cfg.c **** }
  80:Generated_Source\PSoC4/cyfitter_cfg.c **** CY_CFG_UNUSED
  81:Generated_Source\PSoC4/cyfitter_cfg.c **** static void CYCONFIGCPY(void *dest, const void *src, size_t n);
  82:Generated_Source\PSoC4/cyfitter_cfg.c **** CY_CFG_UNUSED
  83:Generated_Source\PSoC4/cyfitter_cfg.c **** static void CYCONFIGCPY(void *dest, const void *src, size_t n)
  84:Generated_Source\PSoC4/cyfitter_cfg.c **** {
  85:Generated_Source\PSoC4/cyfitter_cfg.c **** 	(void)memcpy(dest, src, n);
  86:Generated_Source\PSoC4/cyfitter_cfg.c **** }
  87:Generated_Source\PSoC4/cyfitter_cfg.c **** CY_CFG_UNUSED
  88:Generated_Source\PSoC4/cyfitter_cfg.c **** static void CYCONFIGCPYCODE(void *dest, const void *src, size_t n);
ARM GAS  C:\Users\214016~1\AppData\Local\Temp\ccgR0nMh.s 			page 3


  89:Generated_Source\PSoC4/cyfitter_cfg.c **** CY_CFG_UNUSED
  90:Generated_Source\PSoC4/cyfitter_cfg.c **** static void CYCONFIGCPYCODE(void *dest, const void *src, size_t n)
  91:Generated_Source\PSoC4/cyfitter_cfg.c **** {
  92:Generated_Source\PSoC4/cyfitter_cfg.c **** 	(void)memcpy(dest, src, n);
  93:Generated_Source\PSoC4/cyfitter_cfg.c **** }
  94:Generated_Source\PSoC4/cyfitter_cfg.c **** 
  95:Generated_Source\PSoC4/cyfitter_cfg.c **** 
  96:Generated_Source\PSoC4/cyfitter_cfg.c **** 
  97:Generated_Source\PSoC4/cyfitter_cfg.c **** 
  98:Generated_Source\PSoC4/cyfitter_cfg.c **** /* Clock startup error codes                                                   */
  99:Generated_Source\PSoC4/cyfitter_cfg.c **** #define CYCLOCKSTART_NO_ERROR    0u
 100:Generated_Source\PSoC4/cyfitter_cfg.c **** #define CYCLOCKSTART_XTAL_ERROR  1u
 101:Generated_Source\PSoC4/cyfitter_cfg.c **** #define CYCLOCKSTART_32KHZ_ERROR 2u
 102:Generated_Source\PSoC4/cyfitter_cfg.c **** #define CYCLOCKSTART_PLL_ERROR   3u
 103:Generated_Source\PSoC4/cyfitter_cfg.c **** #define CYCLOCKSTART_FLL_ERROR   4u
 104:Generated_Source\PSoC4/cyfitter_cfg.c **** 
 105:Generated_Source\PSoC4/cyfitter_cfg.c **** 
 106:Generated_Source\PSoC4/cyfitter_cfg.c **** #ifdef CY_NEED_CYCLOCKSTARTUPERROR
 107:Generated_Source\PSoC4/cyfitter_cfg.c **** /*******************************************************************************
 108:Generated_Source\PSoC4/cyfitter_cfg.c **** * Function Name: CyClockStartupError
 109:Generated_Source\PSoC4/cyfitter_cfg.c **** ********************************************************************************
 110:Generated_Source\PSoC4/cyfitter_cfg.c **** * Summary:
 111:Generated_Source\PSoC4/cyfitter_cfg.c **** *  If an error is encountered during clock configuration (crystal startup error,
 112:Generated_Source\PSoC4/cyfitter_cfg.c **** *  PLL lock error, etc.), the system will end up here.  Unless reimplemented by
 113:Generated_Source\PSoC4/cyfitter_cfg.c **** *  the customer, this function will stop in an infinite loop.
 114:Generated_Source\PSoC4/cyfitter_cfg.c **** *
 115:Generated_Source\PSoC4/cyfitter_cfg.c **** * Parameters:
 116:Generated_Source\PSoC4/cyfitter_cfg.c **** *   void
 117:Generated_Source\PSoC4/cyfitter_cfg.c **** *
 118:Generated_Source\PSoC4/cyfitter_cfg.c **** * Return:
 119:Generated_Source\PSoC4/cyfitter_cfg.c **** *   void
 120:Generated_Source\PSoC4/cyfitter_cfg.c **** *
 121:Generated_Source\PSoC4/cyfitter_cfg.c **** *******************************************************************************/
 122:Generated_Source\PSoC4/cyfitter_cfg.c **** CY_CFG_UNUSED
 123:Generated_Source\PSoC4/cyfitter_cfg.c **** static void CyClockStartupError(uint8 errorCode);
 124:Generated_Source\PSoC4/cyfitter_cfg.c **** CY_CFG_UNUSED
 125:Generated_Source\PSoC4/cyfitter_cfg.c **** static void CyClockStartupError(uint8 errorCode)
 126:Generated_Source\PSoC4/cyfitter_cfg.c **** {
 127:Generated_Source\PSoC4/cyfitter_cfg.c ****     /* To remove the compiler warning if errorCode not used. */
 128:Generated_Source\PSoC4/cyfitter_cfg.c **** #if defined(CY_PSOC3) && (CY_PSOC3)
 129:Generated_Source\PSoC4/cyfitter_cfg.c ****     errorCode = errorCode;
 130:Generated_Source\PSoC4/cyfitter_cfg.c **** #else
 131:Generated_Source\PSoC4/cyfitter_cfg.c ****     (void)errorCode;
 132:Generated_Source\PSoC4/cyfitter_cfg.c **** #endif /* CY_PSOC3 */
 133:Generated_Source\PSoC4/cyfitter_cfg.c **** 
 134:Generated_Source\PSoC4/cyfitter_cfg.c ****     /* If we have a clock startup error (bad MHz crystal, PLL lock, etc.),  */
 135:Generated_Source\PSoC4/cyfitter_cfg.c ****     /* we will end up here to allow the customer to implement something to  */
 136:Generated_Source\PSoC4/cyfitter_cfg.c ****     /* deal with the clock condition.                                       */
 137:Generated_Source\PSoC4/cyfitter_cfg.c **** 
 138:Generated_Source\PSoC4/cyfitter_cfg.c **** #ifdef CY_CFG_CLOCK_STARTUP_ERROR_CALLBACK
 139:Generated_Source\PSoC4/cyfitter_cfg.c ****     CY_CFG_Clock_Startup_ErrorCallback();
 140:Generated_Source\PSoC4/cyfitter_cfg.c **** #else
 141:Generated_Source\PSoC4/cyfitter_cfg.c ****     /*  If not using CY_CFG_CLOCK_STARTUP_ERROR_CALLBACK, place your clock startup code here. */
 142:Generated_Source\PSoC4/cyfitter_cfg.c ****     /* `#START CyClockStartupError` */
 143:Generated_Source\PSoC4/cyfitter_cfg.c **** 
 144:Generated_Source\PSoC4/cyfitter_cfg.c **** 
 145:Generated_Source\PSoC4/cyfitter_cfg.c **** 
ARM GAS  C:\Users\214016~1\AppData\Local\Temp\ccgR0nMh.s 			page 4


 146:Generated_Source\PSoC4/cyfitter_cfg.c ****     /* `#END` */
 147:Generated_Source\PSoC4/cyfitter_cfg.c **** 
 148:Generated_Source\PSoC4/cyfitter_cfg.c ****     while(1) {}
 149:Generated_Source\PSoC4/cyfitter_cfg.c **** #endif /* CY_CFG_CLOCK_STARTUP_ERROR_CALLBACK */
 150:Generated_Source\PSoC4/cyfitter_cfg.c **** }
 151:Generated_Source\PSoC4/cyfitter_cfg.c **** #endif
 152:Generated_Source\PSoC4/cyfitter_cfg.c **** 
 153:Generated_Source\PSoC4/cyfitter_cfg.c **** #define CY_CFG_BASE_ADDR_COUNT 8u
 154:Generated_Source\PSoC4/cyfitter_cfg.c **** CYPACKED typedef struct
 155:Generated_Source\PSoC4/cyfitter_cfg.c **** {
 156:Generated_Source\PSoC4/cyfitter_cfg.c **** 	uint8 offset;
 157:Generated_Source\PSoC4/cyfitter_cfg.c **** 	uint8 value;
 158:Generated_Source\PSoC4/cyfitter_cfg.c **** } CYPACKED_ATTR cy_cfg_addrvalue_t;
 159:Generated_Source\PSoC4/cyfitter_cfg.c **** 
 160:Generated_Source\PSoC4/cyfitter_cfg.c **** 
 161:Generated_Source\PSoC4/cyfitter_cfg.c **** 
 162:Generated_Source\PSoC4/cyfitter_cfg.c **** /*******************************************************************************
 163:Generated_Source\PSoC4/cyfitter_cfg.c **** * Function Name: cfg_write_bytes32
 164:Generated_Source\PSoC4/cyfitter_cfg.c **** ********************************************************************************
 165:Generated_Source\PSoC4/cyfitter_cfg.c **** * Summary:
 166:Generated_Source\PSoC4/cyfitter_cfg.c **** *  This function is used for setting up the chip configuration areas that
 167:Generated_Source\PSoC4/cyfitter_cfg.c **** *  contain relatively sparse data.
 168:Generated_Source\PSoC4/cyfitter_cfg.c **** *
 169:Generated_Source\PSoC4/cyfitter_cfg.c **** * Parameters:
 170:Generated_Source\PSoC4/cyfitter_cfg.c **** *   void
 171:Generated_Source\PSoC4/cyfitter_cfg.c **** *
 172:Generated_Source\PSoC4/cyfitter_cfg.c **** * Return:
 173:Generated_Source\PSoC4/cyfitter_cfg.c **** *   void
 174:Generated_Source\PSoC4/cyfitter_cfg.c **** *
 175:Generated_Source\PSoC4/cyfitter_cfg.c **** *******************************************************************************/
 176:Generated_Source\PSoC4/cyfitter_cfg.c **** static void cfg_write_bytes32(const uint32 addr_table[], const cy_cfg_addrvalue_t data_table[]);
 177:Generated_Source\PSoC4/cyfitter_cfg.c **** static void cfg_write_bytes32(const uint32 addr_table[], const cy_cfg_addrvalue_t data_table[])
 178:Generated_Source\PSoC4/cyfitter_cfg.c **** {
  27              		.loc 1 178 0
  28              		.cfi_startproc
  29              		@ args = 0, pretend = 0, frame = 0
  30              		@ frame_needed = 0, uses_anonymous_args = 0
  31              	.LVL0:
  32 0000 F0B5     		push	{r4, r5, r6, r7, lr}
  33              		.cfi_def_cfa_offset 20
  34              		.cfi_offset 4, -20
  35              		.cfi_offset 5, -16
  36              		.cfi_offset 6, -12
  37              		.cfi_offset 7, -8
  38              		.cfi_offset 14, -4
  39              	.LVL1:
 179:Generated_Source\PSoC4/cyfitter_cfg.c **** 	/* For 32-bit little-endian architectures */
 180:Generated_Source\PSoC4/cyfitter_cfg.c **** 	uint32 i, j = 0u;
  40              		.loc 1 180 0
  41 0002 0025     		movs	r5, #0
 181:Generated_Source\PSoC4/cyfitter_cfg.c **** 	for (i = 0u; i < CY_CFG_BASE_ADDR_COUNT; i++)
  42              		.loc 1 181 0
  43 0004 0027     		movs	r7, #0
  44 0006 11E0     		b	.L2
  45              	.LVL2:
  46              	.L5:
  47              	.LBB2:
ARM GAS  C:\Users\214016~1\AppData\Local\Temp\ccgR0nMh.s 			page 5


 182:Generated_Source\PSoC4/cyfitter_cfg.c **** 	{
 183:Generated_Source\PSoC4/cyfitter_cfg.c **** 		uint32 baseAddr = addr_table[i];
  48              		.loc 1 183 0
  49 0008 BB00     		lsls	r3, r7, #2
  50 000a C658     		ldr	r6, [r0, r3]
  51              	.LVL3:
 184:Generated_Source\PSoC4/cyfitter_cfg.c **** 		uint8 count = (uint8)baseAddr;
  52              		.loc 1 184 0
  53 000c F3B2     		uxtb	r3, r6
  54              	.LVL4:
 185:Generated_Source\PSoC4/cyfitter_cfg.c **** 		baseAddr &= 0xFFFFFF00u;
  55              		.loc 1 185 0
  56 000e FF22     		movs	r2, #255
  57 0010 9643     		bics	r6, r2
  58              	.LVL5:
 186:Generated_Source\PSoC4/cyfitter_cfg.c **** 		while (count != 0u)
  59              		.loc 1 186 0
  60 0012 08E0     		b	.L3
  61              	.L4:
 187:Generated_Source\PSoC4/cyfitter_cfg.c **** 		{
 188:Generated_Source\PSoC4/cyfitter_cfg.c **** 			CY_SET_REG8((void *)(baseAddr + data_table[j].offset), data_table[j].value);
  62              		.loc 1 188 0
  63 0014 6A00     		lsls	r2, r5, #1
  64 0016 8A18     		adds	r2, r1, r2
  65 0018 1478     		ldrb	r4, [r2]
  66 001a A419     		adds	r4, r4, r6
  67 001c 5278     		ldrb	r2, [r2, #1]
  68 001e 2270     		strb	r2, [r4]
 189:Generated_Source\PSoC4/cyfitter_cfg.c **** 			j++;
  69              		.loc 1 189 0
  70 0020 0135     		adds	r5, r5, #1
  71              	.LVL6:
 190:Generated_Source\PSoC4/cyfitter_cfg.c **** 			count--;
  72              		.loc 1 190 0
  73 0022 013B     		subs	r3, r3, #1
  74              	.LVL7:
  75 0024 DBB2     		uxtb	r3, r3
  76              	.LVL8:
  77              	.L3:
 186:Generated_Source\PSoC4/cyfitter_cfg.c **** 		{
  78              		.loc 1 186 0
  79 0026 002B     		cmp	r3, #0
  80 0028 F4D1     		bne	.L4
  81              	.LBE2:
 181:Generated_Source\PSoC4/cyfitter_cfg.c **** 	{
  82              		.loc 1 181 0 discriminator 2
  83 002a 0137     		adds	r7, r7, #1
  84              	.LVL9:
  85              	.L2:
 181:Generated_Source\PSoC4/cyfitter_cfg.c **** 	{
  86              		.loc 1 181 0 is_stmt 0 discriminator 1
  87 002c 072F     		cmp	r7, #7
  88 002e EBD9     		bls	.L5
 191:Generated_Source\PSoC4/cyfitter_cfg.c **** 		}
 192:Generated_Source\PSoC4/cyfitter_cfg.c **** 	}
 193:Generated_Source\PSoC4/cyfitter_cfg.c **** }
  89              		.loc 1 193 0 is_stmt 1
ARM GAS  C:\Users\214016~1\AppData\Local\Temp\ccgR0nMh.s 			page 6


  90              		@ sp needed
  91              	.LVL10:
  92              	.LVL11:
  93 0030 F0BD     		pop	{r4, r5, r6, r7, pc}
  94              		.cfi_endproc
  95              	.LFE4:
  96              		.size	cfg_write_bytes32, .-cfg_write_bytes32
  97 0032 C046     		.section	.text.CYMEMZERO,"ax",%progbits
  98              		.align	2
  99              		.code	16
 100              		.thumb_func
 101              		.type	CYMEMZERO, %function
 102              	CYMEMZERO:
 103              	.LFB1:
  77:Generated_Source\PSoC4/cyfitter_cfg.c **** 	(void)memset(s, 0, n);
 104              		.loc 1 77 0
 105              		.cfi_startproc
 106              		@ args = 0, pretend = 0, frame = 0
 107              		@ frame_needed = 0, uses_anonymous_args = 0
 108              	.LVL12:
 109 0000 10B5     		push	{r4, lr}
 110              		.cfi_def_cfa_offset 8
 111              		.cfi_offset 4, -8
 112              		.cfi_offset 14, -4
 113 0002 0A00     		movs	r2, r1
  78:Generated_Source\PSoC4/cyfitter_cfg.c **** }
 114              		.loc 1 78 0
 115 0004 0021     		movs	r1, #0
 116              	.LVL13:
 117 0006 FFF7FEFF 		bl	memset
 118              	.LVL14:
  79:Generated_Source\PSoC4/cyfitter_cfg.c **** CY_CFG_UNUSED
 119              		.loc 1 79 0
 120              		@ sp needed
 121 000a 10BD     		pop	{r4, pc}
 122              		.cfi_endproc
 123              	.LFE1:
 124              		.size	CYMEMZERO, .-CYMEMZERO
 125              		.section	.psocinit,"ax",%progbits
 126              		.align	2
 127              		.code	16
 128              		.thumb_func
 129              		.type	ClockSetup, %function
 130              	ClockSetup:
 131              	.LFB5:
 194:Generated_Source\PSoC4/cyfitter_cfg.c **** 
 195:Generated_Source\PSoC4/cyfitter_cfg.c **** 
 196:Generated_Source\PSoC4/cyfitter_cfg.c **** /*******************************************************************************
 197:Generated_Source\PSoC4/cyfitter_cfg.c **** * Function Name: ClockSetup
 198:Generated_Source\PSoC4/cyfitter_cfg.c **** ********************************************************************************
 199:Generated_Source\PSoC4/cyfitter_cfg.c **** *
 200:Generated_Source\PSoC4/cyfitter_cfg.c **** * Summary:
 201:Generated_Source\PSoC4/cyfitter_cfg.c **** *   Performs the initialization of all of the clocks in the device based on the
 202:Generated_Source\PSoC4/cyfitter_cfg.c **** *   settings in the Clock tab of the DWR.  This includes enabling the requested
 203:Generated_Source\PSoC4/cyfitter_cfg.c **** *   clocks and setting the necessary dividers to produce the desired frequency. 
 204:Generated_Source\PSoC4/cyfitter_cfg.c **** *
 205:Generated_Source\PSoC4/cyfitter_cfg.c **** * Parameters:
ARM GAS  C:\Users\214016~1\AppData\Local\Temp\ccgR0nMh.s 			page 7


 206:Generated_Source\PSoC4/cyfitter_cfg.c **** *   void
 207:Generated_Source\PSoC4/cyfitter_cfg.c **** *
 208:Generated_Source\PSoC4/cyfitter_cfg.c **** * Return:
 209:Generated_Source\PSoC4/cyfitter_cfg.c **** *   void
 210:Generated_Source\PSoC4/cyfitter_cfg.c **** *
 211:Generated_Source\PSoC4/cyfitter_cfg.c **** *******************************************************************************/
 212:Generated_Source\PSoC4/cyfitter_cfg.c **** static void ClockSetup(void);
 213:Generated_Source\PSoC4/cyfitter_cfg.c **** CY_CFG_SECTION
 214:Generated_Source\PSoC4/cyfitter_cfg.c **** static void ClockSetup(void)
 215:Generated_Source\PSoC4/cyfitter_cfg.c **** {
 132              		.loc 1 215 0
 133              		.cfi_startproc
 134              		@ args = 0, pretend = 0, frame = 0
 135              		@ frame_needed = 0, uses_anonymous_args = 0
 136 0000 70B5     		push	{r4, r5, r6, lr}
 137              		.cfi_def_cfa_offset 16
 138              		.cfi_offset 4, -16
 139              		.cfi_offset 5, -12
 140              		.cfi_offset 6, -8
 141              		.cfi_offset 14, -4
 216:Generated_Source\PSoC4/cyfitter_cfg.c **** 
 217:Generated_Source\PSoC4/cyfitter_cfg.c **** 	/* Set Flash Cycles based on max possible frequency in case a glitch occurs during ClockSetup(). *
 218:Generated_Source\PSoC4/cyfitter_cfg.c **** 	CY_SET_REG32((void CYXDATA *)(CYREG_CPUSS_FLASH_CTL), (0x0012u));
 142              		.loc 1 218 0
 143 0002 174C     		ldr	r4, .L8
 144 0004 1223     		movs	r3, #18
 145 0006 2360     		str	r3, [r4]
 219:Generated_Source\PSoC4/cyfitter_cfg.c **** 	/* Setup and trim IMO based on desired frequency. */
 220:Generated_Source\PSoC4/cyfitter_cfg.c **** 	CySysClkWriteImoFreq(24u);
 146              		.loc 1 220 0
 147 0008 1820     		movs	r0, #24
 148 000a FFF7FEFF 		bl	CySysClkWriteImoFreq
 149              	.LVL15:
 221:Generated_Source\PSoC4/cyfitter_cfg.c **** 	/* CYDEV_CLK_ILO_CONFIG Starting address: CYDEV_CLK_ILO_CONFIG */
 222:Generated_Source\PSoC4/cyfitter_cfg.c **** 	CY_SET_REG32((void *)(CYREG_CLK_ILO_CONFIG), 0x80000006u);
 150              		.loc 1 222 0
 151 000e 154A     		ldr	r2, .L8+4
 152 0010 154B     		ldr	r3, .L8+8
 153 0012 1A60     		str	r2, [r3]
 223:Generated_Source\PSoC4/cyfitter_cfg.c **** 
 224:Generated_Source\PSoC4/cyfitter_cfg.c **** 
 225:Generated_Source\PSoC4/cyfitter_cfg.c **** 	/* Setup phase aligned clocks */
 226:Generated_Source\PSoC4/cyfitter_cfg.c **** 	CY_SET_REG32((void *)CYREG_PERI_DIV_16_CTL1, 0x00031F00u);
 154              		.loc 1 226 0
 155 0014 154A     		ldr	r2, .L8+12
 156 0016 164B     		ldr	r3, .L8+16
 157 0018 1A60     		str	r2, [r3]
 227:Generated_Source\PSoC4/cyfitter_cfg.c **** 	CY_SET_REG32((void *)CYREG_PERI_DIV_CMD, 0x8000FF41u);
 158              		.loc 1 227 0
 159 001a 164B     		ldr	r3, .L8+20
 160 001c 164A     		ldr	r2, .L8+24
 161 001e 1A60     		str	r2, [r3]
 228:Generated_Source\PSoC4/cyfitter_cfg.c **** 	CY_SET_REG32((void *)CYREG_PERI_DIV_16_CTL0, 0x00000500u);
 162              		.loc 1 228 0
 163 0020 A021     		movs	r1, #160
 164 0022 C900     		lsls	r1, r1, #3
 165 0024 154A     		ldr	r2, .L8+28
ARM GAS  C:\Users\214016~1\AppData\Local\Temp\ccgR0nMh.s 			page 8


 166 0026 1160     		str	r1, [r2]
 229:Generated_Source\PSoC4/cyfitter_cfg.c **** 	CY_SET_REG32((void *)CYREG_PERI_DIV_CMD, 0x8000FF40u);
 167              		.loc 1 229 0
 168 0028 154A     		ldr	r2, .L8+32
 169 002a 1A60     		str	r2, [r3]
 230:Generated_Source\PSoC4/cyfitter_cfg.c **** 
 231:Generated_Source\PSoC4/cyfitter_cfg.c **** 	/* CYDEV_CLK_IMO_CONFIG Starting address: CYDEV_CLK_IMO_CONFIG */
 232:Generated_Source\PSoC4/cyfitter_cfg.c **** 	CY_SET_REG32((void *)(CYREG_CLK_IMO_CONFIG), 0x82000000u);
 170              		.loc 1 232 0
 171 002c 8222     		movs	r2, #130
 172 002e 1206     		lsls	r2, r2, #24
 173 0030 144B     		ldr	r3, .L8+36
 174 0032 1A60     		str	r2, [r3]
 233:Generated_Source\PSoC4/cyfitter_cfg.c **** 
 234:Generated_Source\PSoC4/cyfitter_cfg.c **** 	/* CYDEV_CLK_SELECT Starting address: CYDEV_CLK_SELECT */
 235:Generated_Source\PSoC4/cyfitter_cfg.c **** 	CY_SET_REG32((void *)(CYREG_CLK_SELECT), 0x00000000u);
 175              		.loc 1 235 0
 176 0034 0025     		movs	r5, #0
 177 0036 144B     		ldr	r3, .L8+40
 178 0038 1D60     		str	r5, [r3]
 236:Generated_Source\PSoC4/cyfitter_cfg.c **** 
 237:Generated_Source\PSoC4/cyfitter_cfg.c **** 	/* CYDEV_PERI_PCLK_CTL19 Starting address: CYDEV_PERI_PCLK_CTL19 */
 238:Generated_Source\PSoC4/cyfitter_cfg.c **** 	CY_SET_REG32((void *)(CYREG_PERI_PCLK_CTL19), 0x00000041u);
 179              		.loc 1 238 0
 180 003a 4122     		movs	r2, #65
 181 003c 134B     		ldr	r3, .L8+44
 182 003e 1A60     		str	r2, [r3]
 239:Generated_Source\PSoC4/cyfitter_cfg.c **** 
 240:Generated_Source\PSoC4/cyfitter_cfg.c **** 	/* CYDEV_PERI_PCLK_CTL10 Starting address: CYDEV_PERI_PCLK_CTL10 */
 241:Generated_Source\PSoC4/cyfitter_cfg.c **** 	CY_SET_REG32((void *)(CYREG_PERI_PCLK_CTL10), 0x00000040u);
 183              		.loc 1 241 0
 184 0040 013A     		subs	r2, r2, #1
 185 0042 134B     		ldr	r3, .L8+48
 186 0044 1A60     		str	r2, [r3]
 242:Generated_Source\PSoC4/cyfitter_cfg.c **** 
 243:Generated_Source\PSoC4/cyfitter_cfg.c **** 	(void)CyIntSetVector(7u, &CySysWdtIsr);
 187              		.loc 1 243 0
 188 0046 1349     		ldr	r1, .L8+52
 189 0048 0720     		movs	r0, #7
 190 004a FFF7FEFF 		bl	CyIntSetVector
 191              	.LVL16:
 244:Generated_Source\PSoC4/cyfitter_cfg.c **** 	CyIntEnable(7u);
 192              		.loc 1 244 0
 193 004e 0720     		movs	r0, #7
 194 0050 FFF7FEFF 		bl	CyIntEnable
 195              	.LVL17:
 245:Generated_Source\PSoC4/cyfitter_cfg.c **** 	CY_SET_REG32((void *)(CYREG_WDT_CONFIG), 0x00000000u);
 196              		.loc 1 245 0
 197 0054 104B     		ldr	r3, .L8+56
 198 0056 1D60     		str	r5, [r3]
 246:Generated_Source\PSoC4/cyfitter_cfg.c **** 	/* Set Flash Cycles based on newly configured 24.00MHz HFCLK. */
 247:Generated_Source\PSoC4/cyfitter_cfg.c **** 	CY_SET_REG32((void CYXDATA *)(CYREG_CPUSS_FLASH_CTL), (0x0011u));
 199              		.loc 1 247 0
 200 0058 1123     		movs	r3, #17
 201 005a 2360     		str	r3, [r4]
 248:Generated_Source\PSoC4/cyfitter_cfg.c **** }
 202              		.loc 1 248 0
ARM GAS  C:\Users\214016~1\AppData\Local\Temp\ccgR0nMh.s 			page 9


 203              		@ sp needed
 204 005c 70BD     		pop	{r4, r5, r6, pc}
 205              	.L9:
 206 005e C046     		.align	2
 207              	.L8:
 208 0060 30001040 		.word	1074790448
 209 0064 06000080 		.word	-2147483642
 210 0068 04010B40 		.word	1074462980
 211 006c 001F0300 		.word	204544
 212 0070 04030140 		.word	1073808132
 213 0074 00000140 		.word	1073807360
 214 0078 41FF0080 		.word	-2147418303
 215 007c 00030140 		.word	1073808128
 216 0080 40FF0080 		.word	-2147418304
 217 0084 08010B40 		.word	1074462984
 218 0088 00010B40 		.word	1074462976
 219 008c 4C010140 		.word	1073807692
 220 0090 28010140 		.word	1073807656
 221 0094 00000000 		.word	CySysWdtIsr
 222 0098 0C020B40 		.word	1074463244
 223              		.cfi_endproc
 224              	.LFE5:
 225              		.size	ClockSetup, .-ClockSetup
 226              		.section	.text.SetAnalogRoutingPumps,"ax",%progbits
 227              		.align	2
 228              		.global	SetAnalogRoutingPumps
 229              		.code	16
 230              		.thumb_func
 231              		.type	SetAnalogRoutingPumps, %function
 232              	SetAnalogRoutingPumps:
 233              	.LFB7:
 249:Generated_Source\PSoC4/cyfitter_cfg.c **** 
 250:Generated_Source\PSoC4/cyfitter_cfg.c **** 
 251:Generated_Source\PSoC4/cyfitter_cfg.c **** /* Analog API Functions */
 252:Generated_Source\PSoC4/cyfitter_cfg.c **** 
 253:Generated_Source\PSoC4/cyfitter_cfg.c **** 
 254:Generated_Source\PSoC4/cyfitter_cfg.c **** /*******************************************************************************
 255:Generated_Source\PSoC4/cyfitter_cfg.c **** * Function Name: AnalogSetDefault
 256:Generated_Source\PSoC4/cyfitter_cfg.c **** ********************************************************************************
 257:Generated_Source\PSoC4/cyfitter_cfg.c **** *
 258:Generated_Source\PSoC4/cyfitter_cfg.c **** * Summary:
 259:Generated_Source\PSoC4/cyfitter_cfg.c **** *  Sets up the analog portions of the chip to default values based on chip
 260:Generated_Source\PSoC4/cyfitter_cfg.c **** *  configuration options from the project.
 261:Generated_Source\PSoC4/cyfitter_cfg.c **** *
 262:Generated_Source\PSoC4/cyfitter_cfg.c **** * Parameters:
 263:Generated_Source\PSoC4/cyfitter_cfg.c **** *  void
 264:Generated_Source\PSoC4/cyfitter_cfg.c **** *
 265:Generated_Source\PSoC4/cyfitter_cfg.c **** * Return:
 266:Generated_Source\PSoC4/cyfitter_cfg.c **** *  void
 267:Generated_Source\PSoC4/cyfitter_cfg.c **** *
 268:Generated_Source\PSoC4/cyfitter_cfg.c **** *******************************************************************************/
 269:Generated_Source\PSoC4/cyfitter_cfg.c **** static void AnalogSetDefault(void);
 270:Generated_Source\PSoC4/cyfitter_cfg.c **** static void AnalogSetDefault(void)
 271:Generated_Source\PSoC4/cyfitter_cfg.c **** {
 272:Generated_Source\PSoC4/cyfitter_cfg.c **** 	CY_SET_XTND_REG32((void CYFAR *)CYREG_CTBM0_CTB_CTRL, 0x80000000u);
 273:Generated_Source\PSoC4/cyfitter_cfg.c **** 	CY_SET_XTND_REG32((void CYFAR *)CYREG_CTBM0_DFT_CTRL, 0x00000003u);
 274:Generated_Source\PSoC4/cyfitter_cfg.c **** 	CY_SET_XTND_REG32((void CYFAR *)CYREG_CTBM0_OA0_SW, 0x00000104u);
ARM GAS  C:\Users\214016~1\AppData\Local\Temp\ccgR0nMh.s 			page 10


 275:Generated_Source\PSoC4/cyfitter_cfg.c **** 	CY_SET_XTND_REG32((void CYFAR *)CYREG_CTBM0_OA1_SW, 0x00000102u);
 276:Generated_Source\PSoC4/cyfitter_cfg.c **** 	CY_SET_XTND_REG32((void CYFAR *)CYREG_CTBM1_DFT_CTRL, 0x00000003u);
 277:Generated_Source\PSoC4/cyfitter_cfg.c **** 	CY_SET_XTND_REG32((void CYFAR *)CYREG_SAR_CTRL, 0x80000000u);
 278:Generated_Source\PSoC4/cyfitter_cfg.c **** 	CY_SET_XTND_REG32((void CYFAR *)CYREG_SAR_MUX_SWITCH0, 0x000000E1u);
 279:Generated_Source\PSoC4/cyfitter_cfg.c **** 	CY_SET_XTND_REG32((void CYFAR *)CYREG_SAR_MUX_SWITCH_HW_CTRL, 0x000000E1u);
 280:Generated_Source\PSoC4/cyfitter_cfg.c **** 	CY_SET_XTND_REG32((void CYFAR *)CYREG_PASS_DSAB_DSAB_CTRL, 0x00000000u);
 281:Generated_Source\PSoC4/cyfitter_cfg.c **** 	SetAnalogRoutingPumps(1);
 282:Generated_Source\PSoC4/cyfitter_cfg.c **** }
 283:Generated_Source\PSoC4/cyfitter_cfg.c **** 
 284:Generated_Source\PSoC4/cyfitter_cfg.c **** 
 285:Generated_Source\PSoC4/cyfitter_cfg.c **** /*******************************************************************************
 286:Generated_Source\PSoC4/cyfitter_cfg.c **** * Function Name: SetAnalogRoutingPumps
 287:Generated_Source\PSoC4/cyfitter_cfg.c **** ********************************************************************************
 288:Generated_Source\PSoC4/cyfitter_cfg.c **** *
 289:Generated_Source\PSoC4/cyfitter_cfg.c **** * Summary:
 290:Generated_Source\PSoC4/cyfitter_cfg.c **** * Enables or disables the analog pumps feeding analog routing switches.
 291:Generated_Source\PSoC4/cyfitter_cfg.c **** * Intended to be called at startup, based on the Vdda system configuration;
 292:Generated_Source\PSoC4/cyfitter_cfg.c **** * may be called during operation when the user informs us that the Vdda voltage crossed the pump th
 293:Generated_Source\PSoC4/cyfitter_cfg.c **** *
 294:Generated_Source\PSoC4/cyfitter_cfg.c **** * Parameters:
 295:Generated_Source\PSoC4/cyfitter_cfg.c **** *  enabled - 1 to enable the pumps, 0 to disable the pumps
 296:Generated_Source\PSoC4/cyfitter_cfg.c **** *
 297:Generated_Source\PSoC4/cyfitter_cfg.c **** * Return:
 298:Generated_Source\PSoC4/cyfitter_cfg.c **** *  void
 299:Generated_Source\PSoC4/cyfitter_cfg.c **** *
 300:Generated_Source\PSoC4/cyfitter_cfg.c **** *******************************************************************************/
 301:Generated_Source\PSoC4/cyfitter_cfg.c **** void SetAnalogRoutingPumps(uint8 enabled)
 302:Generated_Source\PSoC4/cyfitter_cfg.c **** {
 234              		.loc 1 302 0
 235              		.cfi_startproc
 236              		@ args = 0, pretend = 0, frame = 0
 237              		@ frame_needed = 0, uses_anonymous_args = 0
 238              		@ link register save eliminated.
 239              	.LVL18:
 303:Generated_Source\PSoC4/cyfitter_cfg.c **** 	uint32 regValue = CY_GET_XTND_REG32((void *)(CYREG_SAR_PUMP_CTRL));
 240              		.loc 1 303 0
 241 0000 064B     		ldr	r3, .L13
 242 0002 1B68     		ldr	r3, [r3]
 243              	.LVL19:
 304:Generated_Source\PSoC4/cyfitter_cfg.c **** 	if (enabled != 0u)
 244              		.loc 1 304 0
 245 0004 0028     		cmp	r0, #0
 246 0006 03D0     		beq	.L11
 305:Generated_Source\PSoC4/cyfitter_cfg.c **** 	{
 306:Generated_Source\PSoC4/cyfitter_cfg.c **** 		regValue |= 0x80000000u;
 247              		.loc 1 306 0
 248 0008 8022     		movs	r2, #128
 249 000a 1206     		lsls	r2, r2, #24
 250 000c 1343     		orrs	r3, r2
 251              	.LVL20:
 252 000e 01E0     		b	.L12
 253              	.L11:
 307:Generated_Source\PSoC4/cyfitter_cfg.c **** 	}
 308:Generated_Source\PSoC4/cyfitter_cfg.c **** 	else
 309:Generated_Source\PSoC4/cyfitter_cfg.c **** 	{
 310:Generated_Source\PSoC4/cyfitter_cfg.c **** 		regValue &= ~0x80000000u;
 254              		.loc 1 310 0
ARM GAS  C:\Users\214016~1\AppData\Local\Temp\ccgR0nMh.s 			page 11


 255 0010 5B00     		lsls	r3, r3, #1
 256              	.LVL21:
 257 0012 5B08     		lsrs	r3, r3, #1
 258              	.LVL22:
 259              	.L12:
 311:Generated_Source\PSoC4/cyfitter_cfg.c **** 	}
 312:Generated_Source\PSoC4/cyfitter_cfg.c **** 	CY_SET_XTND_REG32((void *)(CYREG_SAR_PUMP_CTRL), regValue);
 260              		.loc 1 312 0
 261 0014 014A     		ldr	r2, .L13
 262 0016 1360     		str	r3, [r2]
 313:Generated_Source\PSoC4/cyfitter_cfg.c **** }
 263              		.loc 1 313 0
 264              		@ sp needed
 265 0018 7047     		bx	lr
 266              	.L14:
 267 001a C046     		.align	2
 268              	.L13:
 269 001c 80033A40 		.word	1077543808
 270              		.cfi_endproc
 271              	.LFE7:
 272              		.size	SetAnalogRoutingPumps, .-SetAnalogRoutingPumps
 273              		.section	.text.AnalogSetDefault,"ax",%progbits
 274              		.align	2
 275              		.code	16
 276              		.thumb_func
 277              		.type	AnalogSetDefault, %function
 278              	AnalogSetDefault:
 279              	.LFB6:
 271:Generated_Source\PSoC4/cyfitter_cfg.c **** 	CY_SET_XTND_REG32((void CYFAR *)CYREG_CTBM0_CTB_CTRL, 0x80000000u);
 280              		.loc 1 271 0
 281              		.cfi_startproc
 282              		@ args = 0, pretend = 0, frame = 0
 283              		@ frame_needed = 0, uses_anonymous_args = 0
 284 0000 10B5     		push	{r4, lr}
 285              		.cfi_def_cfa_offset 8
 286              		.cfi_offset 4, -8
 287              		.cfi_offset 14, -4
 272:Generated_Source\PSoC4/cyfitter_cfg.c **** 	CY_SET_XTND_REG32((void CYFAR *)CYREG_CTBM0_DFT_CTRL, 0x00000003u);
 288              		.loc 1 272 0
 289 0002 8023     		movs	r3, #128
 290 0004 1B06     		lsls	r3, r3, #24
 291 0006 0E4A     		ldr	r2, .L16
 292 0008 1360     		str	r3, [r2]
 273:Generated_Source\PSoC4/cyfitter_cfg.c **** 	CY_SET_XTND_REG32((void CYFAR *)CYREG_CTBM0_OA0_SW, 0x00000104u);
 293              		.loc 1 273 0
 294 000a 0322     		movs	r2, #3
 295 000c 0D49     		ldr	r1, .L16+4
 296 000e 0A60     		str	r2, [r1]
 274:Generated_Source\PSoC4/cyfitter_cfg.c **** 	CY_SET_XTND_REG32((void CYFAR *)CYREG_CTBM0_OA1_SW, 0x00000102u);
 297              		.loc 1 274 0
 298 0010 8220     		movs	r0, #130
 299 0012 4000     		lsls	r0, r0, #1
 300 0014 0C49     		ldr	r1, .L16+8
 301 0016 0860     		str	r0, [r1]
 275:Generated_Source\PSoC4/cyfitter_cfg.c **** 	CY_SET_XTND_REG32((void CYFAR *)CYREG_CTBM1_DFT_CTRL, 0x00000003u);
 302              		.loc 1 275 0
 303 0018 0238     		subs	r0, r0, #2
ARM GAS  C:\Users\214016~1\AppData\Local\Temp\ccgR0nMh.s 			page 12


 304 001a 0C49     		ldr	r1, .L16+12
 305 001c 0860     		str	r0, [r1]
 276:Generated_Source\PSoC4/cyfitter_cfg.c **** 	CY_SET_XTND_REG32((void CYFAR *)CYREG_SAR_CTRL, 0x80000000u);
 306              		.loc 1 276 0
 307 001e 0C49     		ldr	r1, .L16+16
 308 0020 0A60     		str	r2, [r1]
 277:Generated_Source\PSoC4/cyfitter_cfg.c **** 	CY_SET_XTND_REG32((void CYFAR *)CYREG_SAR_MUX_SWITCH0, 0x000000E1u);
 309              		.loc 1 277 0
 310 0022 0C4A     		ldr	r2, .L16+20
 311 0024 1360     		str	r3, [r2]
 278:Generated_Source\PSoC4/cyfitter_cfg.c **** 	CY_SET_XTND_REG32((void CYFAR *)CYREG_SAR_MUX_SWITCH_HW_CTRL, 0x000000E1u);
 312              		.loc 1 278 0
 313 0026 E123     		movs	r3, #225
 314 0028 0B4A     		ldr	r2, .L16+24
 315 002a 1360     		str	r3, [r2]
 279:Generated_Source\PSoC4/cyfitter_cfg.c **** 	CY_SET_XTND_REG32((void CYFAR *)CYREG_PASS_DSAB_DSAB_CTRL, 0x00000000u);
 316              		.loc 1 279 0
 317 002c 0B4A     		ldr	r2, .L16+28
 318 002e 1360     		str	r3, [r2]
 280:Generated_Source\PSoC4/cyfitter_cfg.c **** 	SetAnalogRoutingPumps(1);
 319              		.loc 1 280 0
 320 0030 0022     		movs	r2, #0
 321 0032 0B4B     		ldr	r3, .L16+32
 322 0034 1A60     		str	r2, [r3]
 281:Generated_Source\PSoC4/cyfitter_cfg.c **** }
 323              		.loc 1 281 0
 324 0036 0238     		subs	r0, r0, #2
 325 0038 FF38     		subs	r0, r0, #255
 326 003a FFF7FEFF 		bl	SetAnalogRoutingPumps
 327              	.LVL23:
 282:Generated_Source\PSoC4/cyfitter_cfg.c **** 
 328              		.loc 1 282 0
 329              		@ sp needed
 330 003e 10BD     		pop	{r4, pc}
 331              	.L17:
 332              		.align	2
 333              	.L16:
 334 0040 00003040 		.word	1076887552
 335 0044 30003040 		.word	1076887600
 336 0048 80003040 		.word	1076887680
 337 004c 88003040 		.word	1076887688
 338 0050 30003140 		.word	1076953136
 339 0054 00003A40 		.word	1077542912
 340 0058 00033A40 		.word	1077543680
 341 005c 40033A40 		.word	1077543744
 342 0060 000E3F40 		.word	1077874176
 343              		.cfi_endproc
 344              	.LFE6:
 345              		.size	AnalogSetDefault, .-AnalogSetDefault
 346              		.section	.psocinit
 347              		.align	2
 348              		.global	cyfitter_cfg
 349              		.code	16
 350              		.thumb_func
 351              		.type	cyfitter_cfg, %function
 352              	cyfitter_cfg:
 353              	.LFB8:
ARM GAS  C:\Users\214016~1\AppData\Local\Temp\ccgR0nMh.s 			page 13


 314:Generated_Source\PSoC4/cyfitter_cfg.c **** 
 315:Generated_Source\PSoC4/cyfitter_cfg.c **** 
 316:Generated_Source\PSoC4/cyfitter_cfg.c **** 
 317:Generated_Source\PSoC4/cyfitter_cfg.c **** 
 318:Generated_Source\PSoC4/cyfitter_cfg.c **** /*******************************************************************************
 319:Generated_Source\PSoC4/cyfitter_cfg.c **** * Function Name: cyfitter_cfg
 320:Generated_Source\PSoC4/cyfitter_cfg.c **** ********************************************************************************
 321:Generated_Source\PSoC4/cyfitter_cfg.c **** * Summary:
 322:Generated_Source\PSoC4/cyfitter_cfg.c **** *  This function is called by the start-up code for the selected device. It
 323:Generated_Source\PSoC4/cyfitter_cfg.c **** *  performs all of the necessary device configuration based on the design
 324:Generated_Source\PSoC4/cyfitter_cfg.c **** *  settings.  This includes settings from the Design Wide Resources (DWR) such
 325:Generated_Source\PSoC4/cyfitter_cfg.c **** *  as Clocks and Pins as well as any component configuration that is necessary.
 326:Generated_Source\PSoC4/cyfitter_cfg.c **** *
 327:Generated_Source\PSoC4/cyfitter_cfg.c **** * Parameters:
 328:Generated_Source\PSoC4/cyfitter_cfg.c **** *   void
 329:Generated_Source\PSoC4/cyfitter_cfg.c **** *
 330:Generated_Source\PSoC4/cyfitter_cfg.c **** * Return:
 331:Generated_Source\PSoC4/cyfitter_cfg.c **** *   void
 332:Generated_Source\PSoC4/cyfitter_cfg.c **** *
 333:Generated_Source\PSoC4/cyfitter_cfg.c **** *******************************************************************************/
 334:Generated_Source\PSoC4/cyfitter_cfg.c **** CY_CFG_SECTION
 335:Generated_Source\PSoC4/cyfitter_cfg.c **** void cyfitter_cfg(void)
 336:Generated_Source\PSoC4/cyfitter_cfg.c **** {
 354              		.loc 1 336 0
 355              		.cfi_startproc
 356              		@ args = 0, pretend = 0, frame = 0
 357              		@ frame_needed = 0, uses_anonymous_args = 0
 358 009c 10B5     		push	{r4, lr}
 359              		.cfi_def_cfa_offset 8
 360              		.cfi_offset 4, -8
 361              		.cfi_offset 14, -4
 337:Generated_Source\PSoC4/cyfitter_cfg.c **** 	/* Disable interrupts by default. Let user enable if/when they want. */
 338:Generated_Source\PSoC4/cyfitter_cfg.c **** 	CyGlobalIntDisable;
 362              		.loc 1 338 0
 363              		.syntax divided
 364              	@ 338 "Generated_Source\PSoC4\cyfitter_cfg.c" 1
 365 009e 72B6     		CPSID   i
 366              	@ 0 "" 2
 367              	.LVL24:
 368              		.thumb
 369              		.syntax unified
 370              	.LBB3:
 339:Generated_Source\PSoC4/cyfitter_cfg.c **** 
 340:Generated_Source\PSoC4/cyfitter_cfg.c **** 	{
 341:Generated_Source\PSoC4/cyfitter_cfg.c **** 		static const uint32 CYCODE cy_cfg_addr_table[] = {
 342:Generated_Source\PSoC4/cyfitter_cfg.c **** 			0x400F0002u, /* Base address: 0x400F0000 Count: 2 */
 343:Generated_Source\PSoC4/cyfitter_cfg.c **** 			0x400F304Eu, /* Base address: 0x400F3000 Count: 78 */
 344:Generated_Source\PSoC4/cyfitter_cfg.c **** 			0x400F3133u, /* Base address: 0x400F3100 Count: 51 */
 345:Generated_Source\PSoC4/cyfitter_cfg.c **** 			0x400F324Du, /* Base address: 0x400F3200 Count: 77 */
 346:Generated_Source\PSoC4/cyfitter_cfg.c **** 			0x400F333Cu, /* Base address: 0x400F3300 Count: 60 */
 347:Generated_Source\PSoC4/cyfitter_cfg.c **** 			0x400F4204u, /* Base address: 0x400F4200 Count: 4 */
 348:Generated_Source\PSoC4/cyfitter_cfg.c **** 			0x400F4304u, /* Base address: 0x400F4300 Count: 4 */
 349:Generated_Source\PSoC4/cyfitter_cfg.c **** 			0x400F6002u, /* Base address: 0x400F6000 Count: 2 */
 350:Generated_Source\PSoC4/cyfitter_cfg.c **** 		};
 351:Generated_Source\PSoC4/cyfitter_cfg.c **** 
 352:Generated_Source\PSoC4/cyfitter_cfg.c **** 		static const cy_cfg_addrvalue_t CYCODE cy_cfg_data_table[] = {
 353:Generated_Source\PSoC4/cyfitter_cfg.c **** 			{0x70u, 0x04u},
ARM GAS  C:\Users\214016~1\AppData\Local\Temp\ccgR0nMh.s 			page 14


 354:Generated_Source\PSoC4/cyfitter_cfg.c **** 			{0x72u, 0x10u},
 355:Generated_Source\PSoC4/cyfitter_cfg.c **** 			{0x00u, 0x03u},
 356:Generated_Source\PSoC4/cyfitter_cfg.c **** 			{0x04u, 0x03u},
 357:Generated_Source\PSoC4/cyfitter_cfg.c **** 			{0x05u, 0x98u},
 358:Generated_Source\PSoC4/cyfitter_cfg.c **** 			{0x07u, 0x46u},
 359:Generated_Source\PSoC4/cyfitter_cfg.c **** 			{0x09u, 0x10u},
 360:Generated_Source\PSoC4/cyfitter_cfg.c **** 			{0x0Au, 0xFFu},
 361:Generated_Source\PSoC4/cyfitter_cfg.c **** 			{0x0Eu, 0xFFu},
 362:Generated_Source\PSoC4/cyfitter_cfg.c **** 			{0x0Fu, 0x08u},
 363:Generated_Source\PSoC4/cyfitter_cfg.c **** 			{0x10u, 0x3Bu},
 364:Generated_Source\PSoC4/cyfitter_cfg.c **** 			{0x11u, 0x10u},
 365:Generated_Source\PSoC4/cyfitter_cfg.c **** 			{0x12u, 0x44u},
 366:Generated_Source\PSoC4/cyfitter_cfg.c **** 			{0x14u, 0x04u},
 367:Generated_Source\PSoC4/cyfitter_cfg.c **** 			{0x15u, 0x04u},
 368:Generated_Source\PSoC4/cyfitter_cfg.c **** 			{0x16u, 0x18u},
 369:Generated_Source\PSoC4/cyfitter_cfg.c **** 			{0x17u, 0x80u},
 370:Generated_Source\PSoC4/cyfitter_cfg.c **** 			{0x18u, 0x40u},
 371:Generated_Source\PSoC4/cyfitter_cfg.c **** 			{0x1Au, 0x20u},
 372:Generated_Source\PSoC4/cyfitter_cfg.c **** 			{0x1Bu, 0x80u},
 373:Generated_Source\PSoC4/cyfitter_cfg.c **** 			{0x1Cu, 0x03u},
 374:Generated_Source\PSoC4/cyfitter_cfg.c **** 			{0x1Du, 0x40u},
 375:Generated_Source\PSoC4/cyfitter_cfg.c **** 			{0x1Fu, 0x80u},
 376:Generated_Source\PSoC4/cyfitter_cfg.c **** 			{0x20u, 0x80u},
 377:Generated_Source\PSoC4/cyfitter_cfg.c **** 			{0x21u, 0x20u},
 378:Generated_Source\PSoC4/cyfitter_cfg.c **** 			{0x23u, 0x1Eu},
 379:Generated_Source\PSoC4/cyfitter_cfg.c **** 			{0x24u, 0x80u},
 380:Generated_Source\PSoC4/cyfitter_cfg.c **** 			{0x25u, 0x02u},
 381:Generated_Source\PSoC4/cyfitter_cfg.c **** 			{0x27u, 0xE1u},
 382:Generated_Source\PSoC4/cyfitter_cfg.c **** 			{0x28u, 0xE0u},
 383:Generated_Source\PSoC4/cyfitter_cfg.c **** 			{0x29u, 0x01u},
 384:Generated_Source\PSoC4/cyfitter_cfg.c **** 			{0x2Au, 0x09u},
 385:Generated_Source\PSoC4/cyfitter_cfg.c **** 			{0x2Bu, 0x1Eu},
 386:Generated_Source\PSoC4/cyfitter_cfg.c **** 			{0x2Cu, 0xE0u},
 387:Generated_Source\PSoC4/cyfitter_cfg.c **** 			{0x2Du, 0x92u},
 388:Generated_Source\PSoC4/cyfitter_cfg.c **** 			{0x2Eu, 0x16u},
 389:Generated_Source\PSoC4/cyfitter_cfg.c **** 			{0x2Fu, 0x4Cu},
 390:Generated_Source\PSoC4/cyfitter_cfg.c **** 			{0x32u, 0xFFu},
 391:Generated_Source\PSoC4/cyfitter_cfg.c **** 			{0x35u, 0xFFu},
 392:Generated_Source\PSoC4/cyfitter_cfg.c **** 			{0x3Eu, 0x04u},
 393:Generated_Source\PSoC4/cyfitter_cfg.c **** 			{0x58u, 0x04u},
 394:Generated_Source\PSoC4/cyfitter_cfg.c **** 			{0x59u, 0x04u},
 395:Generated_Source\PSoC4/cyfitter_cfg.c **** 			{0x5Bu, 0x04u},
 396:Generated_Source\PSoC4/cyfitter_cfg.c **** 			{0x5Cu, 0x80u},
 397:Generated_Source\PSoC4/cyfitter_cfg.c **** 			{0x5Fu, 0x11u},
 398:Generated_Source\PSoC4/cyfitter_cfg.c **** 			{0x82u, 0x02u},
 399:Generated_Source\PSoC4/cyfitter_cfg.c **** 			{0x88u, 0x20u},
 400:Generated_Source\PSoC4/cyfitter_cfg.c **** 			{0x89u, 0x08u},
 401:Generated_Source\PSoC4/cyfitter_cfg.c **** 			{0x8Au, 0x15u},
 402:Generated_Source\PSoC4/cyfitter_cfg.c **** 			{0x8Bu, 0x04u},
 403:Generated_Source\PSoC4/cyfitter_cfg.c **** 			{0x8Cu, 0x25u},
 404:Generated_Source\PSoC4/cyfitter_cfg.c **** 			{0x8Eu, 0xCAu},
 405:Generated_Source\PSoC4/cyfitter_cfg.c **** 			{0x95u, 0x24u},
 406:Generated_Source\PSoC4/cyfitter_cfg.c **** 			{0x96u, 0x09u},
 407:Generated_Source\PSoC4/cyfitter_cfg.c **** 			{0x97u, 0x18u},
 408:Generated_Source\PSoC4/cyfitter_cfg.c **** 			{0x99u, 0x01u},
 409:Generated_Source\PSoC4/cyfitter_cfg.c **** 			{0x9Bu, 0x02u},
 410:Generated_Source\PSoC4/cyfitter_cfg.c **** 			{0x9Cu, 0x80u},
ARM GAS  C:\Users\214016~1\AppData\Local\Temp\ccgR0nMh.s 			page 15


 411:Generated_Source\PSoC4/cyfitter_cfg.c **** 			{0x9Du, 0x12u},
 412:Generated_Source\PSoC4/cyfitter_cfg.c **** 			{0x9Eu, 0x40u},
 413:Generated_Source\PSoC4/cyfitter_cfg.c **** 			{0x9Fu, 0x21u},
 414:Generated_Source\PSoC4/cyfitter_cfg.c **** 			{0xA0u, 0x40u},
 415:Generated_Source\PSoC4/cyfitter_cfg.c **** 			{0xA2u, 0x80u},
 416:Generated_Source\PSoC4/cyfitter_cfg.c **** 			{0xA3u, 0x3Fu},
 417:Generated_Source\PSoC4/cyfitter_cfg.c **** 			{0xA4u, 0x10u},
 418:Generated_Source\PSoC4/cyfitter_cfg.c **** 			{0xA6u, 0xEFu},
 419:Generated_Source\PSoC4/cyfitter_cfg.c **** 			{0xABu, 0x3Fu},
 420:Generated_Source\PSoC4/cyfitter_cfg.c **** 			{0xB0u, 0x03u},
 421:Generated_Source\PSoC4/cyfitter_cfg.c **** 			{0xB1u, 0x03u},
 422:Generated_Source\PSoC4/cyfitter_cfg.c **** 			{0xB2u, 0x0Cu},
 423:Generated_Source\PSoC4/cyfitter_cfg.c **** 			{0xB3u, 0x30u},
 424:Generated_Source\PSoC4/cyfitter_cfg.c **** 			{0xB4u, 0x30u},
 425:Generated_Source\PSoC4/cyfitter_cfg.c **** 			{0xB5u, 0x0Cu},
 426:Generated_Source\PSoC4/cyfitter_cfg.c **** 			{0xB6u, 0xC0u},
 427:Generated_Source\PSoC4/cyfitter_cfg.c **** 			{0xBAu, 0x8Au},
 428:Generated_Source\PSoC4/cyfitter_cfg.c **** 			{0xBBu, 0x2Au},
 429:Generated_Source\PSoC4/cyfitter_cfg.c **** 			{0xD8u, 0x04u},
 430:Generated_Source\PSoC4/cyfitter_cfg.c **** 			{0xD9u, 0x04u},
 431:Generated_Source\PSoC4/cyfitter_cfg.c **** 			{0xDCu, 0x88u},
 432:Generated_Source\PSoC4/cyfitter_cfg.c **** 			{0xDFu, 0x11u},
 433:Generated_Source\PSoC4/cyfitter_cfg.c **** 			{0x00u, 0x44u},
 434:Generated_Source\PSoC4/cyfitter_cfg.c **** 			{0x01u, 0x01u},
 435:Generated_Source\PSoC4/cyfitter_cfg.c **** 			{0x02u, 0x80u},
 436:Generated_Source\PSoC4/cyfitter_cfg.c **** 			{0x03u, 0x08u},
 437:Generated_Source\PSoC4/cyfitter_cfg.c **** 			{0x04u, 0x40u},
 438:Generated_Source\PSoC4/cyfitter_cfg.c **** 			{0x05u, 0x11u},
 439:Generated_Source\PSoC4/cyfitter_cfg.c **** 			{0x09u, 0x10u},
 440:Generated_Source\PSoC4/cyfitter_cfg.c **** 			{0x0Au, 0x02u},
 441:Generated_Source\PSoC4/cyfitter_cfg.c **** 			{0x0Bu, 0x90u},
 442:Generated_Source\PSoC4/cyfitter_cfg.c **** 			{0x0Eu, 0x21u},
 443:Generated_Source\PSoC4/cyfitter_cfg.c **** 			{0x10u, 0xAAu},
 444:Generated_Source\PSoC4/cyfitter_cfg.c **** 			{0x12u, 0x40u},
 445:Generated_Source\PSoC4/cyfitter_cfg.c **** 			{0x14u, 0x20u},
 446:Generated_Source\PSoC4/cyfitter_cfg.c **** 			{0x15u, 0x01u},
 447:Generated_Source\PSoC4/cyfitter_cfg.c **** 			{0x18u, 0x10u},
 448:Generated_Source\PSoC4/cyfitter_cfg.c **** 			{0x1Du, 0x11u},
 449:Generated_Source\PSoC4/cyfitter_cfg.c **** 			{0x1Eu, 0x21u},
 450:Generated_Source\PSoC4/cyfitter_cfg.c **** 			{0x1Fu, 0x40u},
 451:Generated_Source\PSoC4/cyfitter_cfg.c **** 			{0x22u, 0x20u},
 452:Generated_Source\PSoC4/cyfitter_cfg.c **** 			{0x25u, 0x30u},
 453:Generated_Source\PSoC4/cyfitter_cfg.c **** 			{0x26u, 0x08u},
 454:Generated_Source\PSoC4/cyfitter_cfg.c **** 			{0x27u, 0x40u},
 455:Generated_Source\PSoC4/cyfitter_cfg.c **** 			{0x28u, 0x10u},
 456:Generated_Source\PSoC4/cyfitter_cfg.c **** 			{0x29u, 0x02u},
 457:Generated_Source\PSoC4/cyfitter_cfg.c **** 			{0x2Au, 0x40u},
 458:Generated_Source\PSoC4/cyfitter_cfg.c **** 			{0x2Bu, 0x08u},
 459:Generated_Source\PSoC4/cyfitter_cfg.c **** 			{0x2Du, 0x02u},
 460:Generated_Source\PSoC4/cyfitter_cfg.c **** 			{0x2Fu, 0x08u},
 461:Generated_Source\PSoC4/cyfitter_cfg.c **** 			{0x30u, 0x02u},
 462:Generated_Source\PSoC4/cyfitter_cfg.c **** 			{0x31u, 0x20u},
 463:Generated_Source\PSoC4/cyfitter_cfg.c **** 			{0x32u, 0x08u},
 464:Generated_Source\PSoC4/cyfitter_cfg.c **** 			{0x33u, 0x40u},
 465:Generated_Source\PSoC4/cyfitter_cfg.c **** 			{0x34u, 0x10u},
 466:Generated_Source\PSoC4/cyfitter_cfg.c **** 			{0x36u, 0x28u},
 467:Generated_Source\PSoC4/cyfitter_cfg.c **** 			{0x37u, 0x40u},
ARM GAS  C:\Users\214016~1\AppData\Local\Temp\ccgR0nMh.s 			page 16


 468:Generated_Source\PSoC4/cyfitter_cfg.c **** 			{0x39u, 0x14u},
 469:Generated_Source\PSoC4/cyfitter_cfg.c **** 			{0x3Bu, 0x80u},
 470:Generated_Source\PSoC4/cyfitter_cfg.c **** 			{0x3Du, 0x20u},
 471:Generated_Source\PSoC4/cyfitter_cfg.c **** 			{0x68u, 0xABu},
 472:Generated_Source\PSoC4/cyfitter_cfg.c **** 			{0x69u, 0x14u},
 473:Generated_Source\PSoC4/cyfitter_cfg.c **** 			{0x7Bu, 0x08u},
 474:Generated_Source\PSoC4/cyfitter_cfg.c **** 			{0x7Cu, 0x20u},
 475:Generated_Source\PSoC4/cyfitter_cfg.c **** 			{0x7Fu, 0x08u},
 476:Generated_Source\PSoC4/cyfitter_cfg.c **** 			{0x8Du, 0x10u},
 477:Generated_Source\PSoC4/cyfitter_cfg.c **** 			{0xC0u, 0xDFu},
 478:Generated_Source\PSoC4/cyfitter_cfg.c **** 			{0xC2u, 0xAFu},
 479:Generated_Source\PSoC4/cyfitter_cfg.c **** 			{0xC4u, 0x3Fu},
 480:Generated_Source\PSoC4/cyfitter_cfg.c **** 			{0xCAu, 0xAFu},
 481:Generated_Source\PSoC4/cyfitter_cfg.c **** 			{0xCCu, 0x7Fu},
 482:Generated_Source\PSoC4/cyfitter_cfg.c **** 			{0xCEu, 0x2Eu},
 483:Generated_Source\PSoC4/cyfitter_cfg.c **** 			{0xDEu, 0x24u},
 484:Generated_Source\PSoC4/cyfitter_cfg.c **** 			{0x00u, 0x04u},
 485:Generated_Source\PSoC4/cyfitter_cfg.c **** 			{0x02u, 0x08u},
 486:Generated_Source\PSoC4/cyfitter_cfg.c **** 			{0x03u, 0x04u},
 487:Generated_Source\PSoC4/cyfitter_cfg.c **** 			{0x05u, 0x06u},
 488:Generated_Source\PSoC4/cyfitter_cfg.c **** 			{0x06u, 0x01u},
 489:Generated_Source\PSoC4/cyfitter_cfg.c **** 			{0x08u, 0x40u},
 490:Generated_Source\PSoC4/cyfitter_cfg.c **** 			{0x0Au, 0x80u},
 491:Generated_Source\PSoC4/cyfitter_cfg.c **** 			{0x0Cu, 0x80u},
 492:Generated_Source\PSoC4/cyfitter_cfg.c **** 			{0x0Du, 0x21u},
 493:Generated_Source\PSoC4/cyfitter_cfg.c **** 			{0x0Eu, 0x40u},
 494:Generated_Source\PSoC4/cyfitter_cfg.c **** 			{0x0Fu, 0x42u},
 495:Generated_Source\PSoC4/cyfitter_cfg.c **** 			{0x13u, 0x08u},
 496:Generated_Source\PSoC4/cyfitter_cfg.c **** 			{0x14u, 0x10u},
 497:Generated_Source\PSoC4/cyfitter_cfg.c **** 			{0x15u, 0x08u},
 498:Generated_Source\PSoC4/cyfitter_cfg.c **** 			{0x16u, 0x20u},
 499:Generated_Source\PSoC4/cyfitter_cfg.c **** 			{0x17u, 0x41u},
 500:Generated_Source\PSoC4/cyfitter_cfg.c **** 			{0x18u, 0x08u},
 501:Generated_Source\PSoC4/cyfitter_cfg.c **** 			{0x1Au, 0x04u},
 502:Generated_Source\PSoC4/cyfitter_cfg.c **** 			{0x1Bu, 0x21u},
 503:Generated_Source\PSoC4/cyfitter_cfg.c **** 			{0x1Cu, 0x02u},
 504:Generated_Source\PSoC4/cyfitter_cfg.c **** 			{0x23u, 0x10u},
 505:Generated_Source\PSoC4/cyfitter_cfg.c **** 			{0x26u, 0x02u},
 506:Generated_Source\PSoC4/cyfitter_cfg.c **** 			{0x27u, 0x63u},
 507:Generated_Source\PSoC4/cyfitter_cfg.c **** 			{0x28u, 0x20u},
 508:Generated_Source\PSoC4/cyfitter_cfg.c **** 			{0x2Au, 0x10u},
 509:Generated_Source\PSoC4/cyfitter_cfg.c **** 			{0x2Bu, 0x21u},
 510:Generated_Source\PSoC4/cyfitter_cfg.c **** 			{0x2Cu, 0x01u},
 511:Generated_Source\PSoC4/cyfitter_cfg.c **** 			{0x2Fu, 0x21u},
 512:Generated_Source\PSoC4/cyfitter_cfg.c **** 			{0x31u, 0x1Cu},
 513:Generated_Source\PSoC4/cyfitter_cfg.c **** 			{0x33u, 0x03u},
 514:Generated_Source\PSoC4/cyfitter_cfg.c **** 			{0x35u, 0x60u},
 515:Generated_Source\PSoC4/cyfitter_cfg.c **** 			{0x36u, 0xFFu},
 516:Generated_Source\PSoC4/cyfitter_cfg.c **** 			{0x39u, 0x02u},
 517:Generated_Source\PSoC4/cyfitter_cfg.c **** 			{0x3Bu, 0x28u},
 518:Generated_Source\PSoC4/cyfitter_cfg.c **** 			{0x3Eu, 0x40u},
 519:Generated_Source\PSoC4/cyfitter_cfg.c **** 			{0x3Fu, 0x01u},
 520:Generated_Source\PSoC4/cyfitter_cfg.c **** 			{0x58u, 0x04u},
 521:Generated_Source\PSoC4/cyfitter_cfg.c **** 			{0x59u, 0x04u},
 522:Generated_Source\PSoC4/cyfitter_cfg.c **** 			{0x5Bu, 0x04u},
 523:Generated_Source\PSoC4/cyfitter_cfg.c **** 			{0x5Cu, 0x80u},
 524:Generated_Source\PSoC4/cyfitter_cfg.c **** 			{0x5Fu, 0x11u},
ARM GAS  C:\Users\214016~1\AppData\Local\Temp\ccgR0nMh.s 			page 17


 525:Generated_Source\PSoC4/cyfitter_cfg.c **** 			{0x80u, 0x10u},
 526:Generated_Source\PSoC4/cyfitter_cfg.c **** 			{0x82u, 0x20u},
 527:Generated_Source\PSoC4/cyfitter_cfg.c **** 			{0x84u, 0x10u},
 528:Generated_Source\PSoC4/cyfitter_cfg.c **** 			{0x85u, 0x01u},
 529:Generated_Source\PSoC4/cyfitter_cfg.c **** 			{0x86u, 0x05u},
 530:Generated_Source\PSoC4/cyfitter_cfg.c **** 			{0x87u, 0x02u},
 531:Generated_Source\PSoC4/cyfitter_cfg.c **** 			{0x89u, 0x06u},
 532:Generated_Source\PSoC4/cyfitter_cfg.c **** 			{0x8Au, 0x08u},
 533:Generated_Source\PSoC4/cyfitter_cfg.c **** 			{0x8Bu, 0x09u},
 534:Generated_Source\PSoC4/cyfitter_cfg.c **** 			{0x8Cu, 0x04u},
 535:Generated_Source\PSoC4/cyfitter_cfg.c **** 			{0x8Eu, 0x72u},
 536:Generated_Source\PSoC4/cyfitter_cfg.c **** 			{0x8Fu, 0x3Fu},
 537:Generated_Source\PSoC4/cyfitter_cfg.c **** 			{0x90u, 0x10u},
 538:Generated_Source\PSoC4/cyfitter_cfg.c **** 			{0x91u, 0x18u},
 539:Generated_Source\PSoC4/cyfitter_cfg.c **** 			{0x93u, 0x24u},
 540:Generated_Source\PSoC4/cyfitter_cfg.c **** 			{0x94u, 0x12u},
 541:Generated_Source\PSoC4/cyfitter_cfg.c **** 			{0x97u, 0x3Fu},
 542:Generated_Source\PSoC4/cyfitter_cfg.c **** 			{0x9Du, 0x20u},
 543:Generated_Source\PSoC4/cyfitter_cfg.c **** 			{0x9Eu, 0x22u},
 544:Generated_Source\PSoC4/cyfitter_cfg.c **** 			{0x9Fu, 0x10u},
 545:Generated_Source\PSoC4/cyfitter_cfg.c **** 			{0xA2u, 0x10u},
 546:Generated_Source\PSoC4/cyfitter_cfg.c **** 			{0xA4u, 0x01u},
 547:Generated_Source\PSoC4/cyfitter_cfg.c **** 			{0xA6u, 0x02u},
 548:Generated_Source\PSoC4/cyfitter_cfg.c **** 			{0xA8u, 0x40u},
 549:Generated_Source\PSoC4/cyfitter_cfg.c **** 			{0xAAu, 0x02u},
 550:Generated_Source\PSoC4/cyfitter_cfg.c **** 			{0xB0u, 0x70u},
 551:Generated_Source\PSoC4/cyfitter_cfg.c **** 			{0xB1u, 0x0Cu},
 552:Generated_Source\PSoC4/cyfitter_cfg.c **** 			{0xB3u, 0x03u},
 553:Generated_Source\PSoC4/cyfitter_cfg.c **** 			{0xB4u, 0x0Fu},
 554:Generated_Source\PSoC4/cyfitter_cfg.c **** 			{0xB7u, 0x30u},
 555:Generated_Source\PSoC4/cyfitter_cfg.c **** 			{0xBBu, 0x8Au},
 556:Generated_Source\PSoC4/cyfitter_cfg.c **** 			{0xBEu, 0x01u},
 557:Generated_Source\PSoC4/cyfitter_cfg.c **** 			{0xD8u, 0x04u},
 558:Generated_Source\PSoC4/cyfitter_cfg.c **** 			{0xD9u, 0x04u},
 559:Generated_Source\PSoC4/cyfitter_cfg.c **** 			{0xDCu, 0x88u},
 560:Generated_Source\PSoC4/cyfitter_cfg.c **** 			{0xDFu, 0x11u},
 561:Generated_Source\PSoC4/cyfitter_cfg.c **** 			{0x00u, 0x56u},
 562:Generated_Source\PSoC4/cyfitter_cfg.c **** 			{0x05u, 0x31u},
 563:Generated_Source\PSoC4/cyfitter_cfg.c **** 			{0x06u, 0x80u},
 564:Generated_Source\PSoC4/cyfitter_cfg.c **** 			{0x07u, 0x21u},
 565:Generated_Source\PSoC4/cyfitter_cfg.c **** 			{0x0Au, 0x01u},
 566:Generated_Source\PSoC4/cyfitter_cfg.c **** 			{0x0Bu, 0x50u},
 567:Generated_Source\PSoC4/cyfitter_cfg.c **** 			{0x0Eu, 0x2Au},
 568:Generated_Source\PSoC4/cyfitter_cfg.c **** 			{0x10u, 0x08u},
 569:Generated_Source\PSoC4/cyfitter_cfg.c **** 			{0x12u, 0xA0u},
 570:Generated_Source\PSoC4/cyfitter_cfg.c **** 			{0x15u, 0x10u},
 571:Generated_Source\PSoC4/cyfitter_cfg.c **** 			{0x16u, 0x02u},
 572:Generated_Source\PSoC4/cyfitter_cfg.c **** 			{0x17u, 0x08u},
 573:Generated_Source\PSoC4/cyfitter_cfg.c **** 			{0x18u, 0x04u},
 574:Generated_Source\PSoC4/cyfitter_cfg.c **** 			{0x19u, 0x02u},
 575:Generated_Source\PSoC4/cyfitter_cfg.c **** 			{0x1Fu, 0x80u},
 576:Generated_Source\PSoC4/cyfitter_cfg.c **** 			{0x22u, 0x81u},
 577:Generated_Source\PSoC4/cyfitter_cfg.c **** 			{0x23u, 0x50u},
 578:Generated_Source\PSoC4/cyfitter_cfg.c **** 			{0x24u, 0x40u},
 579:Generated_Source\PSoC4/cyfitter_cfg.c **** 			{0x25u, 0x04u},
 580:Generated_Source\PSoC4/cyfitter_cfg.c **** 			{0x27u, 0x28u},
 581:Generated_Source\PSoC4/cyfitter_cfg.c **** 			{0x2Cu, 0x10u},
ARM GAS  C:\Users\214016~1\AppData\Local\Temp\ccgR0nMh.s 			page 18


 582:Generated_Source\PSoC4/cyfitter_cfg.c **** 			{0x2Du, 0x20u},
 583:Generated_Source\PSoC4/cyfitter_cfg.c **** 			{0x2Eu, 0x80u},
 584:Generated_Source\PSoC4/cyfitter_cfg.c **** 			{0x2Fu, 0x80u},
 585:Generated_Source\PSoC4/cyfitter_cfg.c **** 			{0x32u, 0x81u},
 586:Generated_Source\PSoC4/cyfitter_cfg.c **** 			{0x33u, 0x08u},
 587:Generated_Source\PSoC4/cyfitter_cfg.c **** 			{0x36u, 0x11u},
 588:Generated_Source\PSoC4/cyfitter_cfg.c **** 			{0x37u, 0x08u},
 589:Generated_Source\PSoC4/cyfitter_cfg.c **** 			{0x38u, 0x44u},
 590:Generated_Source\PSoC4/cyfitter_cfg.c **** 			{0x3Bu, 0x10u},
 591:Generated_Source\PSoC4/cyfitter_cfg.c **** 			{0x3Cu, 0x40u},
 592:Generated_Source\PSoC4/cyfitter_cfg.c **** 			{0x3Du, 0x08u},
 593:Generated_Source\PSoC4/cyfitter_cfg.c **** 			{0x3Eu, 0x02u},
 594:Generated_Source\PSoC4/cyfitter_cfg.c **** 			{0x6Du, 0x10u},
 595:Generated_Source\PSoC4/cyfitter_cfg.c **** 			{0x6Eu, 0x0Au},
 596:Generated_Source\PSoC4/cyfitter_cfg.c **** 			{0x6Fu, 0x01u},
 597:Generated_Source\PSoC4/cyfitter_cfg.c **** 			{0x76u, 0x02u},
 598:Generated_Source\PSoC4/cyfitter_cfg.c **** 			{0x7Bu, 0x08u},
 599:Generated_Source\PSoC4/cyfitter_cfg.c **** 			{0x7Fu, 0x08u},
 600:Generated_Source\PSoC4/cyfitter_cfg.c **** 			{0x88u, 0x10u},
 601:Generated_Source\PSoC4/cyfitter_cfg.c **** 			{0x8Au, 0x20u},
 602:Generated_Source\PSoC4/cyfitter_cfg.c **** 			{0x8Bu, 0x08u},
 603:Generated_Source\PSoC4/cyfitter_cfg.c **** 			{0x90u, 0x10u},
 604:Generated_Source\PSoC4/cyfitter_cfg.c **** 			{0x92u, 0x01u},
 605:Generated_Source\PSoC4/cyfitter_cfg.c **** 			{0x94u, 0x44u},
 606:Generated_Source\PSoC4/cyfitter_cfg.c **** 			{0x96u, 0x02u},
 607:Generated_Source\PSoC4/cyfitter_cfg.c **** 			{0x97u, 0x10u},
 608:Generated_Source\PSoC4/cyfitter_cfg.c **** 			{0x99u, 0x11u},
 609:Generated_Source\PSoC4/cyfitter_cfg.c **** 			{0x9Du, 0x02u},
 610:Generated_Source\PSoC4/cyfitter_cfg.c **** 			{0xA0u, 0x09u},
 611:Generated_Source\PSoC4/cyfitter_cfg.c **** 			{0xA2u, 0x10u},
 612:Generated_Source\PSoC4/cyfitter_cfg.c **** 			{0xA6u, 0x80u},
 613:Generated_Source\PSoC4/cyfitter_cfg.c **** 			{0xA7u, 0x08u},
 614:Generated_Source\PSoC4/cyfitter_cfg.c **** 			{0xC0u, 0xFFu},
 615:Generated_Source\PSoC4/cyfitter_cfg.c **** 			{0xC2u, 0xEDu},
 616:Generated_Source\PSoC4/cyfitter_cfg.c **** 			{0xC4u, 0xEEu},
 617:Generated_Source\PSoC4/cyfitter_cfg.c **** 			{0xCAu, 0xF0u},
 618:Generated_Source\PSoC4/cyfitter_cfg.c **** 			{0xCCu, 0xEBu},
 619:Generated_Source\PSoC4/cyfitter_cfg.c **** 			{0xCEu, 0xDEu},
 620:Generated_Source\PSoC4/cyfitter_cfg.c **** 			{0xDEu, 0x24u},
 621:Generated_Source\PSoC4/cyfitter_cfg.c **** 			{0x54u, 0x20u},
 622:Generated_Source\PSoC4/cyfitter_cfg.c **** 			{0x8Cu, 0x20u},
 623:Generated_Source\PSoC4/cyfitter_cfg.c **** 			{0xD4u, 0x02u},
 624:Generated_Source\PSoC4/cyfitter_cfg.c **** 			{0xE4u, 0x08u},
 625:Generated_Source\PSoC4/cyfitter_cfg.c **** 			{0x0Bu, 0x20u},
 626:Generated_Source\PSoC4/cyfitter_cfg.c **** 			{0x8Bu, 0x10u},
 627:Generated_Source\PSoC4/cyfitter_cfg.c **** 			{0xC2u, 0x08u},
 628:Generated_Source\PSoC4/cyfitter_cfg.c **** 			{0xE2u, 0x04u},
 629:Generated_Source\PSoC4/cyfitter_cfg.c **** 			{0x01u, 0x01u},
 630:Generated_Source\PSoC4/cyfitter_cfg.c **** 			{0x10u, 0x01u},
 631:Generated_Source\PSoC4/cyfitter_cfg.c **** 		};
 632:Generated_Source\PSoC4/cyfitter_cfg.c **** 
 633:Generated_Source\PSoC4/cyfitter_cfg.c **** 
 634:Generated_Source\PSoC4/cyfitter_cfg.c **** 
 635:Generated_Source\PSoC4/cyfitter_cfg.c **** 		CYPACKED typedef struct {
 636:Generated_Source\PSoC4/cyfitter_cfg.c **** 			void CYFAR *address;
 637:Generated_Source\PSoC4/cyfitter_cfg.c **** 			uint16 size;
 638:Generated_Source\PSoC4/cyfitter_cfg.c **** 		} CYPACKED_ATTR cfg_memset_t;
ARM GAS  C:\Users\214016~1\AppData\Local\Temp\ccgR0nMh.s 			page 19


 639:Generated_Source\PSoC4/cyfitter_cfg.c **** 
 640:Generated_Source\PSoC4/cyfitter_cfg.c **** 		static const cfg_memset_t CYCODE cfg_memset_list[] = {
 641:Generated_Source\PSoC4/cyfitter_cfg.c **** 			/* address, size */
 642:Generated_Source\PSoC4/cyfitter_cfg.c **** 			{(void CYFAR *)(CYDEV_UDB_P0_U0_BASE), 1024u},
 643:Generated_Source\PSoC4/cyfitter_cfg.c **** 			{(void CYFAR *)(CYDEV_UDB_DSI0_BASE), 1024u},
 644:Generated_Source\PSoC4/cyfitter_cfg.c **** 		};
 645:Generated_Source\PSoC4/cyfitter_cfg.c **** 
 646:Generated_Source\PSoC4/cyfitter_cfg.c **** 		uint8 CYDATA i;
 647:Generated_Source\PSoC4/cyfitter_cfg.c **** 
 648:Generated_Source\PSoC4/cyfitter_cfg.c **** 		/* Zero out critical memory blocks before beginning configuration */
 649:Generated_Source\PSoC4/cyfitter_cfg.c **** 		for (i = 0u; i < (sizeof(cfg_memset_list)/sizeof(cfg_memset_list[0])); i++)
 371              		.loc 1 649 0
 372 00a0 0024     		movs	r4, #0
 373 00a2 0FE0     		b	.L19
 374              	.LVL25:
 375              	.L20:
 376              	.LBB4:
 650:Generated_Source\PSoC4/cyfitter_cfg.c **** 		{
 651:Generated_Source\PSoC4/cyfitter_cfg.c **** 			const cfg_memset_t CYCODE * CYDATA ms = &cfg_memset_list[i];
 652:Generated_Source\PSoC4/cyfitter_cfg.c **** 			CYMEMZERO(ms->address, (size_t)(uint32)(ms->size));
 377              		.loc 1 652 0 discriminator 3
 378 00a4 2B48     		ldr	r0, .L21
 379 00a6 6200     		lsls	r2, r4, #1
 380 00a8 1319     		adds	r3, r2, r4
 381 00aa 5900     		lsls	r1, r3, #1
 382 00ac 0B00     		movs	r3, r1
 383 00ae 4118     		adds	r1, r0, r1
 384 00b0 8988     		ldrh	r1, [r1, #4]
 385 00b2 1A5A     		ldrh	r2, [r3, r0]
 386 00b4 C318     		adds	r3, r0, r3
 387 00b6 5888     		ldrh	r0, [r3, #2]
 388 00b8 0004     		lsls	r0, r0, #16
 389 00ba 1043     		orrs	r0, r2
 390 00bc FFF7FEFF 		bl	CYMEMZERO
 391              	.LVL26:
 392              	.LBE4:
 649:Generated_Source\PSoC4/cyfitter_cfg.c **** 		{
 393              		.loc 1 649 0 discriminator 3
 394 00c0 0134     		adds	r4, r4, #1
 395              	.LVL27:
 396 00c2 E4B2     		uxtb	r4, r4
 397              	.LVL28:
 398              	.L19:
 649:Generated_Source\PSoC4/cyfitter_cfg.c **** 		{
 399              		.loc 1 649 0 is_stmt 0 discriminator 1
 400 00c4 012C     		cmp	r4, #1
 401 00c6 EDD9     		bls	.L20
 653:Generated_Source\PSoC4/cyfitter_cfg.c **** 		}
 654:Generated_Source\PSoC4/cyfitter_cfg.c **** 
 655:Generated_Source\PSoC4/cyfitter_cfg.c **** 		cfg_write_bytes32(cy_cfg_addr_table, cy_cfg_data_table);
 402              		.loc 1 655 0 is_stmt 1
 403 00c8 2249     		ldr	r1, .L21
 404 00ca 0C31     		adds	r1, r1, #12
 405 00cc 2248     		ldr	r0, .L21+4
 406 00ce 3830     		adds	r0, r0, #56
 407 00d0 FFF7FEFF 		bl	cfg_write_bytes32
 408              	.LVL29:
ARM GAS  C:\Users\214016~1\AppData\Local\Temp\ccgR0nMh.s 			page 20


 656:Generated_Source\PSoC4/cyfitter_cfg.c **** 
 657:Generated_Source\PSoC4/cyfitter_cfg.c **** 		/* HSIOM Starting address: CYDEV_HSIOM_BASE */
 658:Generated_Source\PSoC4/cyfitter_cfg.c **** 		CY_SET_REG32((void *)(CYREG_HSIOM_PORT_SEL2), 0x00003000u);
 409              		.loc 1 658 0
 410 00d4 C022     		movs	r2, #192
 411 00d6 9201     		lsls	r2, r2, #6
 412 00d8 204B     		ldr	r3, .L21+8
 413 00da 1A60     		str	r2, [r3]
 659:Generated_Source\PSoC4/cyfitter_cfg.c **** 		CY_SET_REG32((void *)(CYREG_HSIOM_PORT_SEL3), 0x0000EE03u);
 414              		.loc 1 659 0
 415 00dc 204A     		ldr	r2, .L21+12
 416 00de 214B     		ldr	r3, .L21+16
 417 00e0 1A60     		str	r2, [r3]
 660:Generated_Source\PSoC4/cyfitter_cfg.c **** 
 661:Generated_Source\PSoC4/cyfitter_cfg.c **** 		/* UDB_PA_1 Starting address: CYDEV_UDB_PA1_BASE */
 662:Generated_Source\PSoC4/cyfitter_cfg.c **** 		CY_SET_REG32((void *)(CYDEV_UDB_PA1_BASE), 0x00990000u);
 418              		.loc 1 662 0
 419 00e2 9923     		movs	r3, #153
 420 00e4 1B04     		lsls	r3, r3, #16
 421 00e6 204A     		ldr	r2, .L21+20
 422 00e8 1360     		str	r3, [r2]
 663:Generated_Source\PSoC4/cyfitter_cfg.c **** 
 664:Generated_Source\PSoC4/cyfitter_cfg.c **** 		/* UDB_PA_2 Starting address: CYDEV_UDB_PA2_BASE */
 665:Generated_Source\PSoC4/cyfitter_cfg.c **** 		CY_SET_REG32((void *)(CYDEV_UDB_PA2_BASE), 0x00990000u);
 423              		.loc 1 665 0
 424 00ea 204A     		ldr	r2, .L21+24
 425 00ec 1360     		str	r3, [r2]
 666:Generated_Source\PSoC4/cyfitter_cfg.c **** 		CY_SET_REG32((void *)(CYREG_UDB_PA2_CFG8), 0x00400000u);
 426              		.loc 1 666 0
 427 00ee 8022     		movs	r2, #128
 428 00f0 D203     		lsls	r2, r2, #15
 429 00f2 1F4B     		ldr	r3, .L21+28
 430 00f4 1A60     		str	r2, [r3]
 667:Generated_Source\PSoC4/cyfitter_cfg.c **** 
 668:Generated_Source\PSoC4/cyfitter_cfg.c **** 		/* UDB_PA_3 Starting address: CYDEV_UDB_PA3_BASE */
 669:Generated_Source\PSoC4/cyfitter_cfg.c **** 		CY_SET_REG32((void *)(CYDEV_UDB_PA3_BASE), 0x00090400u);
 431              		.loc 1 669 0
 432 00f6 1F4A     		ldr	r2, .L21+32
 433 00f8 1F4B     		ldr	r3, .L21+36
 434 00fa 1A60     		str	r2, [r3]
 670:Generated_Source\PSoC4/cyfitter_cfg.c **** 		CY_SET_REG32((void *)(CYREG_UDB_PA3_CFG8), 0x00000002u);
 435              		.loc 1 670 0
 436 00fc 0222     		movs	r2, #2
 437 00fe 1F4B     		ldr	r3, .L21+40
 438 0100 1A60     		str	r2, [r3]
 671:Generated_Source\PSoC4/cyfitter_cfg.c **** 
 672:Generated_Source\PSoC4/cyfitter_cfg.c **** 		/* Enable UDB array and digital routing */
 673:Generated_Source\PSoC4/cyfitter_cfg.c **** 		CY_SET_XTND_REG8((void *)CYREG_UDB_UDBIF_WAIT_CFG, (uint8)((CY_GET_XTND_REG8((void *)CYREG_UDB_UD
 439              		.loc 1 673 0
 440 0102 1F49     		ldr	r1, .L21+44
 441 0104 0B78     		ldrb	r3, [r1]
 442 0106 3A32     		adds	r2, r2, #58
 443 0108 9343     		bics	r3, r2
 444 010a 1422     		movs	r2, #20
 445 010c 1343     		orrs	r3, r2
 446 010e DBB2     		uxtb	r3, r3
 447 0110 0B70     		strb	r3, [r1]
ARM GAS  C:\Users\214016~1\AppData\Local\Temp\ccgR0nMh.s 			page 21


 674:Generated_Source\PSoC4/cyfitter_cfg.c **** 		CY_SET_XTND_REG8((void *)CYREG_UDB_UDBIF_BANK_CTL, (uint8)(CY_GET_XTND_REG8((void *)CYREG_UDB_UDB
 448              		.loc 1 674 0
 449 0112 1C4A     		ldr	r2, .L21+48
 450 0114 1178     		ldrb	r1, [r2]
 451 0116 1623     		movs	r3, #22
 452 0118 0B43     		orrs	r3, r1
 453 011a DBB2     		uxtb	r3, r3
 454 011c 1370     		strb	r3, [r2]
 455              	.LBE3:
 675:Generated_Source\PSoC4/cyfitter_cfg.c **** 	}
 676:Generated_Source\PSoC4/cyfitter_cfg.c **** 
 677:Generated_Source\PSoC4/cyfitter_cfg.c **** 	/* Perform second pass device configuration. These items must be configured in specific order afte
 678:Generated_Source\PSoC4/cyfitter_cfg.c **** 	/* IOPINS0_1 Starting address: CYDEV_GPIO_PRT1_BASE */
 679:Generated_Source\PSoC4/cyfitter_cfg.c **** 	CY_SET_REG32((void *)(CYDEV_GPIO_PRT1_BASE), 0x0000003Fu);
 456              		.loc 1 679 0
 457 011e 3F23     		movs	r3, #63
 458 0120 194A     		ldr	r2, .L21+52
 459 0122 1360     		str	r3, [r2]
 680:Generated_Source\PSoC4/cyfitter_cfg.c **** 	CY_SET_REG32((void *)(CYREG_GPIO_PRT1_PC2), 0x0000003Fu);
 460              		.loc 1 680 0
 461 0124 194A     		ldr	r2, .L21+56
 462 0126 1360     		str	r3, [r2]
 681:Generated_Source\PSoC4/cyfitter_cfg.c **** 
 682:Generated_Source\PSoC4/cyfitter_cfg.c **** 	/* IOPINS0_2 Starting address: CYDEV_GPIO_PRT2_BASE */
 683:Generated_Source\PSoC4/cyfitter_cfg.c **** 	CY_SET_REG32((void *)(CYDEV_GPIO_PRT2_BASE), 0x000000E9u);
 463              		.loc 1 683 0
 464 0128 E922     		movs	r2, #233
 465 012a 194B     		ldr	r3, .L21+60
 466 012c 1A60     		str	r2, [r3]
 684:Generated_Source\PSoC4/cyfitter_cfg.c **** 	CY_SET_REG32((void *)(CYREG_GPIO_PRT2_PC), 0x00000C00u);
 467              		.loc 1 684 0
 468 012e C022     		movs	r2, #192
 469 0130 1201     		lsls	r2, r2, #4
 470 0132 184B     		ldr	r3, .L21+64
 471 0134 1A60     		str	r2, [r3]
 685:Generated_Source\PSoC4/cyfitter_cfg.c **** 	CY_SET_REG32((void *)(CYREG_GPIO_PRT2_PC2), 0x000000E1u);
 472              		.loc 1 685 0
 473 0136 E122     		movs	r2, #225
 474 0138 174B     		ldr	r3, .L21+68
 475 013a 1A60     		str	r2, [r3]
 686:Generated_Source\PSoC4/cyfitter_cfg.c **** 
 687:Generated_Source\PSoC4/cyfitter_cfg.c **** 	/* IOPINS0_3 Starting address: CYDEV_GPIO_PRT3_BASE */
 688:Generated_Source\PSoC4/cyfitter_cfg.c **** 	CY_SET_REG32((void *)(CYDEV_GPIO_PRT3_BASE), 0x00000001u);
 476              		.loc 1 688 0
 477 013c E03A     		subs	r2, r2, #224
 478 013e 174B     		ldr	r3, .L21+72
 479 0140 1A60     		str	r2, [r3]
 689:Generated_Source\PSoC4/cyfitter_cfg.c **** 	CY_SET_REG32((void *)(CYREG_GPIO_PRT3_PC), 0x00001D86u);
 480              		.loc 1 689 0
 481 0142 174A     		ldr	r2, .L21+76
 482 0144 174B     		ldr	r3, .L21+80
 483 0146 1A60     		str	r2, [r3]
 690:Generated_Source\PSoC4/cyfitter_cfg.c **** 
 691:Generated_Source\PSoC4/cyfitter_cfg.c **** 
 692:Generated_Source\PSoC4/cyfitter_cfg.c **** 	/* Setup clocks based on selections from Clock DWR */
 693:Generated_Source\PSoC4/cyfitter_cfg.c **** 	ClockSetup();
 484              		.loc 1 693 0
ARM GAS  C:\Users\214016~1\AppData\Local\Temp\ccgR0nMh.s 			page 22


 485 0148 FFF75AFF 		bl	ClockSetup
 486              	.LVL30:
 694:Generated_Source\PSoC4/cyfitter_cfg.c **** 
 695:Generated_Source\PSoC4/cyfitter_cfg.c **** 	/* Perform basic analog initialization to defaults */
 696:Generated_Source\PSoC4/cyfitter_cfg.c **** 	AnalogSetDefault();
 487              		.loc 1 696 0
 488 014c FFF7FEFF 		bl	AnalogSetDefault
 489              	.LVL31:
 697:Generated_Source\PSoC4/cyfitter_cfg.c **** 
 698:Generated_Source\PSoC4/cyfitter_cfg.c **** }
 490              		.loc 1 698 0
 491              		@ sp needed
 492              	.LVL32:
 493 0150 10BD     		pop	{r4, pc}
 494              	.L22:
 495 0152 C046     		.align	2
 496              	.L21:
 497 0154 00000000 		.word	.LANCHOR0
 498 0158 00020000 		.word	.LANCHOR1
 499 015c 00020240 		.word	1073873408
 500 0160 03EE0000 		.word	60931
 501 0164 00030240 		.word	1073873664
 502 0168 10500F40 		.word	1074745360
 503 016c 20500F40 		.word	1074745376
 504 0170 28500F40 		.word	1074745384
 505 0174 00040900 		.word	590848
 506 0178 30500F40 		.word	1074745392
 507 017c 38500F40 		.word	1074745400
 508 0180 01700F40 		.word	1074753537
 509 0184 00700F40 		.word	1074753536
 510 0188 00010440 		.word	1074004224
 511 018c 18010440 		.word	1074004248
 512 0190 00020440 		.word	1074004480
 513 0194 08020440 		.word	1074004488
 514 0198 18020440 		.word	1074004504
 515 019c 00030440 		.word	1074004736
 516 01a0 861D0000 		.word	7558
 517 01a4 08030440 		.word	1074004744
 518              		.cfi_endproc
 519              	.LFE8:
 520              		.size	cyfitter_cfg, .-cyfitter_cfg
 521              		.section	.rodata
 522              		.align	2
 523              		.set	.LANCHOR0,. + 0
 524              		.set	.LANCHOR1,. + 512
 525              		.type	cfg_memset_list.4917, %object
 526              		.size	cfg_memset_list.4917, 12
 527              	cfg_memset_list.4917:
 528 0000 00300F40 		.word	1074737152
 529 0004 0004     		.short	1024
 530 0006 00400F40 		.4byte	1074741248
 531 000a 0004     		.short	1024
 532              		.type	cy_cfg_data_table.4912, %object
 533              		.size	cy_cfg_data_table.4912, 556
 534              	cy_cfg_data_table.4912:
 535 000c 70       		.byte	112
 536 000d 04       		.byte	4
ARM GAS  C:\Users\214016~1\AppData\Local\Temp\ccgR0nMh.s 			page 23


 537 000e 72       		.byte	114
 538 000f 10       		.byte	16
 539 0010 00       		.byte	0
 540 0011 03       		.byte	3
 541 0012 04       		.byte	4
 542 0013 03       		.byte	3
 543 0014 05       		.byte	5
 544 0015 98       		.byte	-104
 545 0016 07       		.byte	7
 546 0017 46       		.byte	70
 547 0018 09       		.byte	9
 548 0019 10       		.byte	16
 549 001a 0A       		.byte	10
 550 001b FF       		.byte	-1
 551 001c 0E       		.byte	14
 552 001d FF       		.byte	-1
 553 001e 0F       		.byte	15
 554 001f 08       		.byte	8
 555 0020 10       		.byte	16
 556 0021 3B       		.byte	59
 557 0022 11       		.byte	17
 558 0023 10       		.byte	16
 559 0024 12       		.byte	18
 560 0025 44       		.byte	68
 561 0026 14       		.byte	20
 562 0027 04       		.byte	4
 563 0028 15       		.byte	21
 564 0029 04       		.byte	4
 565 002a 16       		.byte	22
 566 002b 18       		.byte	24
 567 002c 17       		.byte	23
 568 002d 80       		.byte	-128
 569 002e 18       		.byte	24
 570 002f 40       		.byte	64
 571 0030 1A       		.byte	26
 572 0031 20       		.byte	32
 573 0032 1B       		.byte	27
 574 0033 80       		.byte	-128
 575 0034 1C       		.byte	28
 576 0035 03       		.byte	3
 577 0036 1D       		.byte	29
 578 0037 40       		.byte	64
 579 0038 1F       		.byte	31
 580 0039 80       		.byte	-128
 581 003a 20       		.byte	32
 582 003b 80       		.byte	-128
 583 003c 21       		.byte	33
 584 003d 20       		.byte	32
 585 003e 23       		.byte	35
 586 003f 1E       		.byte	30
 587 0040 24       		.byte	36
 588 0041 80       		.byte	-128
 589 0042 25       		.byte	37
 590 0043 02       		.byte	2
 591 0044 27       		.byte	39
 592 0045 E1       		.byte	-31
 593 0046 28       		.byte	40
ARM GAS  C:\Users\214016~1\AppData\Local\Temp\ccgR0nMh.s 			page 24


 594 0047 E0       		.byte	-32
 595 0048 29       		.byte	41
 596 0049 01       		.byte	1
 597 004a 2A       		.byte	42
 598 004b 09       		.byte	9
 599 004c 2B       		.byte	43
 600 004d 1E       		.byte	30
 601 004e 2C       		.byte	44
 602 004f E0       		.byte	-32
 603 0050 2D       		.byte	45
 604 0051 92       		.byte	-110
 605 0052 2E       		.byte	46
 606 0053 16       		.byte	22
 607 0054 2F       		.byte	47
 608 0055 4C       		.byte	76
 609 0056 32       		.byte	50
 610 0057 FF       		.byte	-1
 611 0058 35       		.byte	53
 612 0059 FF       		.byte	-1
 613 005a 3E       		.byte	62
 614 005b 04       		.byte	4
 615 005c 58       		.byte	88
 616 005d 04       		.byte	4
 617 005e 59       		.byte	89
 618 005f 04       		.byte	4
 619 0060 5B       		.byte	91
 620 0061 04       		.byte	4
 621 0062 5C       		.byte	92
 622 0063 80       		.byte	-128
 623 0064 5F       		.byte	95
 624 0065 11       		.byte	17
 625 0066 82       		.byte	-126
 626 0067 02       		.byte	2
 627 0068 88       		.byte	-120
 628 0069 20       		.byte	32
 629 006a 89       		.byte	-119
 630 006b 08       		.byte	8
 631 006c 8A       		.byte	-118
 632 006d 15       		.byte	21
 633 006e 8B       		.byte	-117
 634 006f 04       		.byte	4
 635 0070 8C       		.byte	-116
 636 0071 25       		.byte	37
 637 0072 8E       		.byte	-114
 638 0073 CA       		.byte	-54
 639 0074 95       		.byte	-107
 640 0075 24       		.byte	36
 641 0076 96       		.byte	-106
 642 0077 09       		.byte	9
 643 0078 97       		.byte	-105
 644 0079 18       		.byte	24
 645 007a 99       		.byte	-103
 646 007b 01       		.byte	1
 647 007c 9B       		.byte	-101
 648 007d 02       		.byte	2
 649 007e 9C       		.byte	-100
 650 007f 80       		.byte	-128
ARM GAS  C:\Users\214016~1\AppData\Local\Temp\ccgR0nMh.s 			page 25


 651 0080 9D       		.byte	-99
 652 0081 12       		.byte	18
 653 0082 9E       		.byte	-98
 654 0083 40       		.byte	64
 655 0084 9F       		.byte	-97
 656 0085 21       		.byte	33
 657 0086 A0       		.byte	-96
 658 0087 40       		.byte	64
 659 0088 A2       		.byte	-94
 660 0089 80       		.byte	-128
 661 008a A3       		.byte	-93
 662 008b 3F       		.byte	63
 663 008c A4       		.byte	-92
 664 008d 10       		.byte	16
 665 008e A6       		.byte	-90
 666 008f EF       		.byte	-17
 667 0090 AB       		.byte	-85
 668 0091 3F       		.byte	63
 669 0092 B0       		.byte	-80
 670 0093 03       		.byte	3
 671 0094 B1       		.byte	-79
 672 0095 03       		.byte	3
 673 0096 B2       		.byte	-78
 674 0097 0C       		.byte	12
 675 0098 B3       		.byte	-77
 676 0099 30       		.byte	48
 677 009a B4       		.byte	-76
 678 009b 30       		.byte	48
 679 009c B5       		.byte	-75
 680 009d 0C       		.byte	12
 681 009e B6       		.byte	-74
 682 009f C0       		.byte	-64
 683 00a0 BA       		.byte	-70
 684 00a1 8A       		.byte	-118
 685 00a2 BB       		.byte	-69
 686 00a3 2A       		.byte	42
 687 00a4 D8       		.byte	-40
 688 00a5 04       		.byte	4
 689 00a6 D9       		.byte	-39
 690 00a7 04       		.byte	4
 691 00a8 DC       		.byte	-36
 692 00a9 88       		.byte	-120
 693 00aa DF       		.byte	-33
 694 00ab 11       		.byte	17
 695 00ac 00       		.byte	0
 696 00ad 44       		.byte	68
 697 00ae 01       		.byte	1
 698 00af 01       		.byte	1
 699 00b0 02       		.byte	2
 700 00b1 80       		.byte	-128
 701 00b2 03       		.byte	3
 702 00b3 08       		.byte	8
 703 00b4 04       		.byte	4
 704 00b5 40       		.byte	64
 705 00b6 05       		.byte	5
 706 00b7 11       		.byte	17
 707 00b8 09       		.byte	9
ARM GAS  C:\Users\214016~1\AppData\Local\Temp\ccgR0nMh.s 			page 26


 708 00b9 10       		.byte	16
 709 00ba 0A       		.byte	10
 710 00bb 02       		.byte	2
 711 00bc 0B       		.byte	11
 712 00bd 90       		.byte	-112
 713 00be 0E       		.byte	14
 714 00bf 21       		.byte	33
 715 00c0 10       		.byte	16
 716 00c1 AA       		.byte	-86
 717 00c2 12       		.byte	18
 718 00c3 40       		.byte	64
 719 00c4 14       		.byte	20
 720 00c5 20       		.byte	32
 721 00c6 15       		.byte	21
 722 00c7 01       		.byte	1
 723 00c8 18       		.byte	24
 724 00c9 10       		.byte	16
 725 00ca 1D       		.byte	29
 726 00cb 11       		.byte	17
 727 00cc 1E       		.byte	30
 728 00cd 21       		.byte	33
 729 00ce 1F       		.byte	31
 730 00cf 40       		.byte	64
 731 00d0 22       		.byte	34
 732 00d1 20       		.byte	32
 733 00d2 25       		.byte	37
 734 00d3 30       		.byte	48
 735 00d4 26       		.byte	38
 736 00d5 08       		.byte	8
 737 00d6 27       		.byte	39
 738 00d7 40       		.byte	64
 739 00d8 28       		.byte	40
 740 00d9 10       		.byte	16
 741 00da 29       		.byte	41
 742 00db 02       		.byte	2
 743 00dc 2A       		.byte	42
 744 00dd 40       		.byte	64
 745 00de 2B       		.byte	43
 746 00df 08       		.byte	8
 747 00e0 2D       		.byte	45
 748 00e1 02       		.byte	2
 749 00e2 2F       		.byte	47
 750 00e3 08       		.byte	8
 751 00e4 30       		.byte	48
 752 00e5 02       		.byte	2
 753 00e6 31       		.byte	49
 754 00e7 20       		.byte	32
 755 00e8 32       		.byte	50
 756 00e9 08       		.byte	8
 757 00ea 33       		.byte	51
 758 00eb 40       		.byte	64
 759 00ec 34       		.byte	52
 760 00ed 10       		.byte	16
 761 00ee 36       		.byte	54
 762 00ef 28       		.byte	40
 763 00f0 37       		.byte	55
 764 00f1 40       		.byte	64
ARM GAS  C:\Users\214016~1\AppData\Local\Temp\ccgR0nMh.s 			page 27


 765 00f2 39       		.byte	57
 766 00f3 14       		.byte	20
 767 00f4 3B       		.byte	59
 768 00f5 80       		.byte	-128
 769 00f6 3D       		.byte	61
 770 00f7 20       		.byte	32
 771 00f8 68       		.byte	104
 772 00f9 AB       		.byte	-85
 773 00fa 69       		.byte	105
 774 00fb 14       		.byte	20
 775 00fc 7B       		.byte	123
 776 00fd 08       		.byte	8
 777 00fe 7C       		.byte	124
 778 00ff 20       		.byte	32
 779 0100 7F       		.byte	127
 780 0101 08       		.byte	8
 781 0102 8D       		.byte	-115
 782 0103 10       		.byte	16
 783 0104 C0       		.byte	-64
 784 0105 DF       		.byte	-33
 785 0106 C2       		.byte	-62
 786 0107 AF       		.byte	-81
 787 0108 C4       		.byte	-60
 788 0109 3F       		.byte	63
 789 010a CA       		.byte	-54
 790 010b AF       		.byte	-81
 791 010c CC       		.byte	-52
 792 010d 7F       		.byte	127
 793 010e CE       		.byte	-50
 794 010f 2E       		.byte	46
 795 0110 DE       		.byte	-34
 796 0111 24       		.byte	36
 797 0112 00       		.byte	0
 798 0113 04       		.byte	4
 799 0114 02       		.byte	2
 800 0115 08       		.byte	8
 801 0116 03       		.byte	3
 802 0117 04       		.byte	4
 803 0118 05       		.byte	5
 804 0119 06       		.byte	6
 805 011a 06       		.byte	6
 806 011b 01       		.byte	1
 807 011c 08       		.byte	8
 808 011d 40       		.byte	64
 809 011e 0A       		.byte	10
 810 011f 80       		.byte	-128
 811 0120 0C       		.byte	12
 812 0121 80       		.byte	-128
 813 0122 0D       		.byte	13
 814 0123 21       		.byte	33
 815 0124 0E       		.byte	14
 816 0125 40       		.byte	64
 817 0126 0F       		.byte	15
 818 0127 42       		.byte	66
 819 0128 13       		.byte	19
 820 0129 08       		.byte	8
 821 012a 14       		.byte	20
ARM GAS  C:\Users\214016~1\AppData\Local\Temp\ccgR0nMh.s 			page 28


 822 012b 10       		.byte	16
 823 012c 15       		.byte	21
 824 012d 08       		.byte	8
 825 012e 16       		.byte	22
 826 012f 20       		.byte	32
 827 0130 17       		.byte	23
 828 0131 41       		.byte	65
 829 0132 18       		.byte	24
 830 0133 08       		.byte	8
 831 0134 1A       		.byte	26
 832 0135 04       		.byte	4
 833 0136 1B       		.byte	27
 834 0137 21       		.byte	33
 835 0138 1C       		.byte	28
 836 0139 02       		.byte	2
 837 013a 23       		.byte	35
 838 013b 10       		.byte	16
 839 013c 26       		.byte	38
 840 013d 02       		.byte	2
 841 013e 27       		.byte	39
 842 013f 63       		.byte	99
 843 0140 28       		.byte	40
 844 0141 20       		.byte	32
 845 0142 2A       		.byte	42
 846 0143 10       		.byte	16
 847 0144 2B       		.byte	43
 848 0145 21       		.byte	33
 849 0146 2C       		.byte	44
 850 0147 01       		.byte	1
 851 0148 2F       		.byte	47
 852 0149 21       		.byte	33
 853 014a 31       		.byte	49
 854 014b 1C       		.byte	28
 855 014c 33       		.byte	51
 856 014d 03       		.byte	3
 857 014e 35       		.byte	53
 858 014f 60       		.byte	96
 859 0150 36       		.byte	54
 860 0151 FF       		.byte	-1
 861 0152 39       		.byte	57
 862 0153 02       		.byte	2
 863 0154 3B       		.byte	59
 864 0155 28       		.byte	40
 865 0156 3E       		.byte	62
 866 0157 40       		.byte	64
 867 0158 3F       		.byte	63
 868 0159 01       		.byte	1
 869 015a 58       		.byte	88
 870 015b 04       		.byte	4
 871 015c 59       		.byte	89
 872 015d 04       		.byte	4
 873 015e 5B       		.byte	91
 874 015f 04       		.byte	4
 875 0160 5C       		.byte	92
 876 0161 80       		.byte	-128
 877 0162 5F       		.byte	95
 878 0163 11       		.byte	17
ARM GAS  C:\Users\214016~1\AppData\Local\Temp\ccgR0nMh.s 			page 29


 879 0164 80       		.byte	-128
 880 0165 10       		.byte	16
 881 0166 82       		.byte	-126
 882 0167 20       		.byte	32
 883 0168 84       		.byte	-124
 884 0169 10       		.byte	16
 885 016a 85       		.byte	-123
 886 016b 01       		.byte	1
 887 016c 86       		.byte	-122
 888 016d 05       		.byte	5
 889 016e 87       		.byte	-121
 890 016f 02       		.byte	2
 891 0170 89       		.byte	-119
 892 0171 06       		.byte	6
 893 0172 8A       		.byte	-118
 894 0173 08       		.byte	8
 895 0174 8B       		.byte	-117
 896 0175 09       		.byte	9
 897 0176 8C       		.byte	-116
 898 0177 04       		.byte	4
 899 0178 8E       		.byte	-114
 900 0179 72       		.byte	114
 901 017a 8F       		.byte	-113
 902 017b 3F       		.byte	63
 903 017c 90       		.byte	-112
 904 017d 10       		.byte	16
 905 017e 91       		.byte	-111
 906 017f 18       		.byte	24
 907 0180 93       		.byte	-109
 908 0181 24       		.byte	36
 909 0182 94       		.byte	-108
 910 0183 12       		.byte	18
 911 0184 97       		.byte	-105
 912 0185 3F       		.byte	63
 913 0186 9D       		.byte	-99
 914 0187 20       		.byte	32
 915 0188 9E       		.byte	-98
 916 0189 22       		.byte	34
 917 018a 9F       		.byte	-97
 918 018b 10       		.byte	16
 919 018c A2       		.byte	-94
 920 018d 10       		.byte	16
 921 018e A4       		.byte	-92
 922 018f 01       		.byte	1
 923 0190 A6       		.byte	-90
 924 0191 02       		.byte	2
 925 0192 A8       		.byte	-88
 926 0193 40       		.byte	64
 927 0194 AA       		.byte	-86
 928 0195 02       		.byte	2
 929 0196 B0       		.byte	-80
 930 0197 70       		.byte	112
 931 0198 B1       		.byte	-79
 932 0199 0C       		.byte	12
 933 019a B3       		.byte	-77
 934 019b 03       		.byte	3
 935 019c B4       		.byte	-76
ARM GAS  C:\Users\214016~1\AppData\Local\Temp\ccgR0nMh.s 			page 30


 936 019d 0F       		.byte	15
 937 019e B7       		.byte	-73
 938 019f 30       		.byte	48
 939 01a0 BB       		.byte	-69
 940 01a1 8A       		.byte	-118
 941 01a2 BE       		.byte	-66
 942 01a3 01       		.byte	1
 943 01a4 D8       		.byte	-40
 944 01a5 04       		.byte	4
 945 01a6 D9       		.byte	-39
 946 01a7 04       		.byte	4
 947 01a8 DC       		.byte	-36
 948 01a9 88       		.byte	-120
 949 01aa DF       		.byte	-33
 950 01ab 11       		.byte	17
 951 01ac 00       		.byte	0
 952 01ad 56       		.byte	86
 953 01ae 05       		.byte	5
 954 01af 31       		.byte	49
 955 01b0 06       		.byte	6
 956 01b1 80       		.byte	-128
 957 01b2 07       		.byte	7
 958 01b3 21       		.byte	33
 959 01b4 0A       		.byte	10
 960 01b5 01       		.byte	1
 961 01b6 0B       		.byte	11
 962 01b7 50       		.byte	80
 963 01b8 0E       		.byte	14
 964 01b9 2A       		.byte	42
 965 01ba 10       		.byte	16
 966 01bb 08       		.byte	8
 967 01bc 12       		.byte	18
 968 01bd A0       		.byte	-96
 969 01be 15       		.byte	21
 970 01bf 10       		.byte	16
 971 01c0 16       		.byte	22
 972 01c1 02       		.byte	2
 973 01c2 17       		.byte	23
 974 01c3 08       		.byte	8
 975 01c4 18       		.byte	24
 976 01c5 04       		.byte	4
 977 01c6 19       		.byte	25
 978 01c7 02       		.byte	2
 979 01c8 1F       		.byte	31
 980 01c9 80       		.byte	-128
 981 01ca 22       		.byte	34
 982 01cb 81       		.byte	-127
 983 01cc 23       		.byte	35
 984 01cd 50       		.byte	80
 985 01ce 24       		.byte	36
 986 01cf 40       		.byte	64
 987 01d0 25       		.byte	37
 988 01d1 04       		.byte	4
 989 01d2 27       		.byte	39
 990 01d3 28       		.byte	40
 991 01d4 2C       		.byte	44
 992 01d5 10       		.byte	16
ARM GAS  C:\Users\214016~1\AppData\Local\Temp\ccgR0nMh.s 			page 31


 993 01d6 2D       		.byte	45
 994 01d7 20       		.byte	32
 995 01d8 2E       		.byte	46
 996 01d9 80       		.byte	-128
 997 01da 2F       		.byte	47
 998 01db 80       		.byte	-128
 999 01dc 32       		.byte	50
 1000 01dd 81       		.byte	-127
 1001 01de 33       		.byte	51
 1002 01df 08       		.byte	8
 1003 01e0 36       		.byte	54
 1004 01e1 11       		.byte	17
 1005 01e2 37       		.byte	55
 1006 01e3 08       		.byte	8
 1007 01e4 38       		.byte	56
 1008 01e5 44       		.byte	68
 1009 01e6 3B       		.byte	59
 1010 01e7 10       		.byte	16
 1011 01e8 3C       		.byte	60
 1012 01e9 40       		.byte	64
 1013 01ea 3D       		.byte	61
 1014 01eb 08       		.byte	8
 1015 01ec 3E       		.byte	62
 1016 01ed 02       		.byte	2
 1017 01ee 6D       		.byte	109
 1018 01ef 10       		.byte	16
 1019 01f0 6E       		.byte	110
 1020 01f1 0A       		.byte	10
 1021 01f2 6F       		.byte	111
 1022 01f3 01       		.byte	1
 1023 01f4 76       		.byte	118
 1024 01f5 02       		.byte	2
 1025 01f6 7B       		.byte	123
 1026 01f7 08       		.byte	8
 1027 01f8 7F       		.byte	127
 1028 01f9 08       		.byte	8
 1029 01fa 88       		.byte	-120
 1030 01fb 10       		.byte	16
 1031 01fc 8A       		.byte	-118
 1032 01fd 20       		.byte	32
 1033 01fe 8B       		.byte	-117
 1034 01ff 08       		.byte	8
 1035 0200 90       		.byte	-112
 1036 0201 10       		.byte	16
 1037 0202 92       		.byte	-110
 1038 0203 01       		.byte	1
 1039 0204 94       		.byte	-108
 1040 0205 44       		.byte	68
 1041 0206 96       		.byte	-106
 1042 0207 02       		.byte	2
 1043 0208 97       		.byte	-105
 1044 0209 10       		.byte	16
 1045 020a 99       		.byte	-103
 1046 020b 11       		.byte	17
 1047 020c 9D       		.byte	-99
 1048 020d 02       		.byte	2
 1049 020e A0       		.byte	-96
ARM GAS  C:\Users\214016~1\AppData\Local\Temp\ccgR0nMh.s 			page 32


 1050 020f 09       		.byte	9
 1051 0210 A2       		.byte	-94
 1052 0211 10       		.byte	16
 1053 0212 A6       		.byte	-90
 1054 0213 80       		.byte	-128
 1055 0214 A7       		.byte	-89
 1056 0215 08       		.byte	8
 1057 0216 C0       		.byte	-64
 1058 0217 FF       		.byte	-1
 1059 0218 C2       		.byte	-62
 1060 0219 ED       		.byte	-19
 1061 021a C4       		.byte	-60
 1062 021b EE       		.byte	-18
 1063 021c CA       		.byte	-54
 1064 021d F0       		.byte	-16
 1065 021e CC       		.byte	-52
 1066 021f EB       		.byte	-21
 1067 0220 CE       		.byte	-50
 1068 0221 DE       		.byte	-34
 1069 0222 DE       		.byte	-34
 1070 0223 24       		.byte	36
 1071 0224 54       		.byte	84
 1072 0225 20       		.byte	32
 1073 0226 8C       		.byte	-116
 1074 0227 20       		.byte	32
 1075 0228 D4       		.byte	-44
 1076 0229 02       		.byte	2
 1077 022a E4       		.byte	-28
 1078 022b 08       		.byte	8
 1079 022c 0B       		.byte	11
 1080 022d 20       		.byte	32
 1081 022e 8B       		.byte	-117
 1082 022f 10       		.byte	16
 1083 0230 C2       		.byte	-62
 1084 0231 08       		.byte	8
 1085 0232 E2       		.byte	-30
 1086 0233 04       		.byte	4
 1087 0234 01       		.byte	1
 1088 0235 01       		.byte	1
 1089 0236 10       		.byte	16
 1090 0237 01       		.byte	1
 1091              		.type	cy_cfg_addr_table.4911, %object
 1092              		.size	cy_cfg_addr_table.4911, 32
 1093              	cy_cfg_addr_table.4911:
 1094 0238 02000F40 		.word	1074724866
 1095 023c 4E300F40 		.word	1074737230
 1096 0240 33310F40 		.word	1074737459
 1097 0244 4D320F40 		.word	1074737741
 1098 0248 3C330F40 		.word	1074737980
 1099 024c 04420F40 		.word	1074741764
 1100 0250 04430F40 		.word	1074742020
 1101 0254 02600F40 		.word	1074749442
 1102              		.text
 1103              	.Letext0:
 1104              		.file 2 "c:\\program files (x86)\\cypress\\psoc creator\\4.1\\psoc creator\\import\\gnu\\arm\\5.4.
 1105              		.file 3 "Generated_Source\\PSoC4\\cytypes.h"
 1106              		.file 4 "Generated_Source\\PSoC4\\CyLib.h"
ARM GAS  C:\Users\214016~1\AppData\Local\Temp\ccgR0nMh.s 			page 33

